(dp0
S'METTS MARK'
p1
(dp2
S'to_messages'
p3
I807
sS'deferral_payments'
p4
S'NaN'
p5
sS'bonus_log'
p6
cnumpy.core.multiarray
scalar
p7
(cnumpy
dtype
p8
(S'f8'
p9
I0
I1
tp10
Rp11
(I3
S'<'
p12
NNNI-1
I-1
I0
tp13
bS'\x10z\xd4\xe1\xff\x9b*@'
p14
tp15
Rp16
sS'expenses'
p17
I94299
sS'poi'
p18
I00
sS'deferred_income'
p19
g5
sS'email_address'
p20
S'mark.metts@enron.com'
p21
sS'long_term_incentive'
p22
g5
sS'salary_log'
p23
g7
(g11
S'p\xfb\x84\x07\xa0\x9e)@'
p24
tp25
Rp26
sS'restricted_stock_deferred'
p27
g5
sS'shared_receipt_with_poi'
p28
I702
sS'loan_advances'
p29
g5
sS'from_messages'
p30
I29
sS'other'
p31
I1740
sS'director_fees'
p32
g5
sS'bonus'
p33
I600000
sS'expenses_sqrt'
p34
g7
(g11
S'\x08\xa1\xec,T1s@'
p35
tp36
Rp37
sS'total_stock_value'
p38
I585062
sS'from_poi_to_this_person'
p39
I38
sS'other_log'
p40
g7
(g11
S'\xa1\x1b\x88\xdfN\xd9\x1d@'
p41
tp42
Rp43
sS'from_this_person_to_poi'
p44
I1
sS'total_payments_log'
p45
g7
(g11
S'\xb4\x0b\x02\xfdA\xc0+@'
p46
tp47
Rp48
sS'restricted_stock'
p49
I585062
sS'salary'
p50
I365788
sS'total_payments'
p51
I1061827
sS'exercised_stock_options'
p52
g5
ssS'BAXTER JOHN C'
p53
(dp54
g3
g5
sg4
I1295738
sg6
g7
(g11
S'\x98\xd8\xcd\xf5\xe3\xfe+@'
p55
tp56
Rp57
sg17
I11200
sg18
I00
sg19
I-1386055
sg20
g5
sg22
I1586055
sg23
g7
(g11
S'\xc1\x8eM3\xa4\xfd(@'
p58
tp59
Rp60
sg27
g5
sg28
g5
sg29
g5
sg30
g5
sg31
I2660303
sg32
g5
sg33
I1200000
sg34
g7
(g11
S'\xa1\xc4\x0f\xfcluZ@'
p61
tp62
Rp63
sg38
I10623258
sg39
g5
sg40
g7
(g11
S'i(\x7f\xbd\x80\x96-@'
p64
tp65
Rp66
sg44
g5
sg45
g7
(g11
S'\xee\x93Az\xba\x16/@'
p67
tp68
Rp69
sg49
I3942714
sg50
I267102
sg51
I5634343
sg52
I6680544
ssS'ELLIOTT STEVEN'
p70
(dp71
g3
g5
sg4
g5
sg6
g7
(g11
S'\xa3\xf4W\xb0\x08\x88)@'
p72
tp73
Rp74
sg17
I78552
sg18
I00
sg19
I-400729
sg20
S'steven.elliott@enron.com'
p75
sg22
g5
sg23
g7
(g11
S'g\x92G\xba!\x19(@'
p76
tp77
Rp78
sg27
g5
sg28
g5
sg29
g5
sg30
g5
sg31
I12961
sg32
g5
sg33
I350000
sg34
g7
(g11
S'\xd1\xbbN\x8a^\x84q@'
p79
tp80
Rp81
sg38
I6678735
sg39
g5
sg40
g7
(g11
S'\xcfO\xc3\xa5\x86\xf0"@'
p82
tp83
Rp84
sg44
g5
sg45
g7
(g11
S':\xd0\x98\xe1\xae\x86(@'
p85
tp86
Rp87
sg49
I1788391
sg50
I170941
sg51
I211725
sg52
I4890344
ssS'CORDES WILLIAM R'
p88
(dp89
g3
I764
sg4
g5
sg6
S'NaN'
p90
sg17
g5
sg18
I00
sg19
g5
sg20
S'bill.cordes@enron.com'
p91
sg22
g5
sg23
g90
sg27
g5
sg28
I58
sg29
g5
sg30
I12
sg31
g5
sg32
g5
sg33
g5
sg34
g90
sg38
I1038185
sg39
I10
sg40
g90
sg44
I0
sg45
g90
sg49
I386335
sg50
g5
sg51
g5
sg52
I651850
ssS'HANNON KEVIN P'
p92
(dp93
g3
I1045
sg4
g5
sg6
g7
(g11
S'f\x9bT\xcf#q,@'
p94
tp95
Rp96
sg17
I34039
sg18
I01
sg19
I-3117011
sg20
S'kevin.hannon@enron.com'
p97
sg22
I1617011
sg23
g7
(g11
S'fS\x8d\xdf\xd6\xcd(@'
p98
tp99
Rp100
sg27
g5
sg28
I1035
sg29
g5
sg30
I32
sg31
I11350
sg32
g5
sg33
I1500000
sg34
g7
(g11
S'\xe6\xa6)s\xfa\x0fg@'
p101
tp102
Rp103
sg38
I6391065
sg39
I32
sg40
g7
(g11
S'\x81\'\x97F\x93\xac"@'
p104
tp105
Rp106
sg44
I21
sg45
g7
(g11
S'\x1b\x18l\xc8k%)@'
p107
tp108
Rp109
sg49
I853064
sg50
I243293
sg51
I288682
sg52
I5538001
ssS'MORDAUNT KRISTINA M'
p110
(dp111
g3
g5
sg4
g5
sg6
g7
(g11
S'/M\xce<\x17b)@'
p112
tp113
Rp114
sg17
I35018
sg18
I00
sg19
g5
sg20
S'kristina.mordaunt@enron.com'
p115
sg22
g5
sg23
g7
(g11
S'0\x10\xad\xc8\x9f\xfd(@'
p116
tp117
Rp118
sg27
g5
sg28
g5
sg29
g5
sg30
g5
sg31
I1411
sg32
g5
sg33
I325000
sg34
g7
(g11
S'\\\x0f\xc4\xcbFdg@'
p119
tp120
Rp121
sg38
I208510
sg39
g5
sg40
g7
(g11
S'\x08\xc9\xbc&\xd4\x02\x1d@'
p122
tp123
Rp124
sg44
g5
sg45
g7
(g11
S'\xadc\xad>\xc7\xb3*@'
p125
tp126
Rp127
sg49
I208510
sg50
I267093
sg51
I628522
sg52
g5
ssS'MEYER ROCKFORD G'
p128
(dp129
g3
I232
sg4
I1848227
sg6
g90
sg17
g5
sg18
I00
sg19
g5
sg20
S'rockford.meyer@enron.com'
p130
sg22
g5
sg23
g90
sg27
g5
sg28
I22
sg29
g5
sg30
I28
sg31
g5
sg32
g5
sg33
g5
sg34
g90
sg38
I955873
sg39
I0
sg40
g90
sg44
I0
sg45
g7
(g11
S'\x8b\rN\xad\x06\xdc,@'
p131
tp132
Rp133
sg49
I462384
sg50
g5
sg51
I1848227
sg52
I493489
ssS'MCMAHON JEFFREY'
p134
(dp135
g3
I2355
sg4
g5
sg6
g7
(g11
S'\x11\x83Fr\xc3\x8a-@'
p136
tp137
Rp138
sg17
I137108
sg18
I00
sg19
g5
sg20
S'jeffrey.mcmahon@enron.com'
p139
sg22
I694862
sg23
g7
(g11
S'\x0f\xe2\xe9G\x1b\xa5)@'
p140
tp141
Rp142
sg27
g5
sg28
I2228
sg29
g5
sg30
I48
sg31
I297353
sg32
g5
sg33
I2600000
sg34
g7
(g11
S'\xa1\xef\xecf\x84$w@'
p143
tp144
Rp145
sg38
I1662855
sg39
I58
sg40
g7
(g11
S'\xfb\xaf\x03K\x924)@'
p146
tp147
Rp148
sg44
I26
sg45
g7
(g11
S'!\x1b4:\xf0s.@'
p149
tp150
Rp151
sg49
I558801
sg50
I370448
sg51
I4099771
sg52
I1104054
ssS'HORTON STANLEY C'
p152
(dp153
g3
I2350
sg4
I3131860
sg6
g90
sg17
g5
sg18
I00
sg19
g5
sg20
S'stanley.horton@enron.com'
p154
sg22
g5
sg23
g90
sg27
g5
sg28
I1074
sg29
g5
sg30
I1073
sg31
g5
sg32
g5
sg33
g5
sg34
g90
sg38
I7256648
sg39
I44
sg40
g90
sg44
I15
sg45
g7
(g11
S'\xce\x9b\x1f\x07\x0e\xea-@'
p155
tp156
Rp157
sg49
I2046079
sg50
g5
sg51
I3131860
sg52
I5210569
ssS'PIPER GREGORY F'
p158
(dp159
g3
I1238
sg4
I1130036
sg6
g7
(g11
S'\xdd\xc0d\xdef\xcc)@'
p160
tp161
Rp162
sg17
I43057
sg18
I00
sg19
I-33333
sg20
S'greg.piper@enron.com'
p163
sg22
g5
sg23
g7
(g11
S'_\xfa\xb7=\x03b(@'
p164
tp165
Rp166
sg27
I-409554
sg28
I742
sg29
g5
sg30
I222
sg31
I778
sg32
g5
sg33
I400000
sg34
g7
(g11
S'\x1c{R\x8b"\xf0i@'
p167
tp168
Rp169
sg38
I880290
sg39
I61
sg40
g7
(g11
S'\xbd\xaf\xc9\xa5\xcd\xa1\x1a@'
p170
tp171
Rp172
sg44
I48
sg45
g7
(g11
S'q\xd8\xa2\xdan\xbc,@'
p173
tp174
Rp175
sg49
I409554
sg50
I197091
sg51
I1737629
sg52
I880290
ssS'HUMPHREY GENE E'
p176
(dp177
g3
I128
sg4
I2964506
sg6
g90
sg17
I4994
sg18
I00
sg19
g5
sg20
S'gene.humphrey@enron.com'
p178
sg22
g5
sg23
g7
(g11
S"*\x17\xcc\xb9\xcc\x8f'@"
p179
tp180
Rp181
sg27
g5
sg28
I119
sg29
g5
sg30
I17
sg31
g5
sg32
g5
sg33
g5
sg34
g7
(g11
S'\xd6\xc6\xf1W8\xabQ@'
p182
tp183
Rp184
sg38
I2282768
sg39
I10
sg40
g90
sg44
I17
sg45
g7
(g11
S'\xa8\x12\xeaJ\xdb\xe4-@'
p185
tp186
Rp187
sg49
g5
sg50
I130724
sg51
I3100224
sg52
I2282768
ssS'UMANOFF ADAM S'
p188
(dp189
g3
I111
sg4
g5
sg6
g7
(g11
S'p\xd2\x96\x9c\n(+@'
p190
tp191
Rp192
sg17
I53122
sg18
I00
sg19
g5
sg20
S'adam.umanoff@enron.com'
p193
sg22
g5
sg23
g7
(g11
S'tu\x11\x8dA%)@'
p194
tp195
Rp196
sg27
g5
sg28
I41
sg29
g5
sg30
I18
sg31
g5
sg32
g5
sg33
I788750
sg34
g7
(g11
S'\x8eN\xa2)\x7f\xcfl@'
p197
tp198
Rp199
sg38
g5
sg39
I12
sg40
g90
sg44
I0
sg45
g7
(g11
S'\xd8\xe7f\x9aS\xe0+@'
p200
tp201
Rp202
sg49
g5
sg50
I288589
sg51
I1130461
sg52
g5
ssS'BLACHMAN JEREMY M'
p203
(dp204
g3
I2475
sg4
g5
sg6
g7
(g11
S'Ds\xab\x12UN+@'
p205
tp206
Rp207
sg17
I84208
sg18
I00
sg19
g5
sg20
S'jeremy.blachman@enron.com'
p208
sg22
I831809
sg23
g7
(g11
S'7\xa0g\xbd\xc6\xd8(@'
p209
tp210
Rp211
sg27
g5
sg28
I2326
sg29
g5
sg30
I14
sg31
I272
sg32
g5
sg33
I850000
sg34
g7
(g11
S'\xb9\x9e)\x84\x01#r@'
p212
tp213
Rp214
sg38
I954354
sg39
I25
sg40
g7
(g11
S'\x81\x9d\xd0_\x19p\x16@'
p215
tp216
Rp217
sg44
I2
sg45
g7
(g11
S'\xa0\x1bF\x8e7\x08-@'
p218
tp219
Rp220
sg49
I189041
sg50
I248546
sg51
I2014835
sg52
I765313
ssS'SUNDE MARTIN'
p221
(dp222
g3
I2647
sg4
g5
sg6
g7
(g11
S'3IX\xb0\xec\xea*@'
p223
tp224
Rp225
sg17
g5
sg18
I00
sg19
g5
sg20
S'marty.sunde@enron.com'
p226
sg22
I476451
sg23
g7
(g11
S'8\xa2\xc5r\xde\xea(@'
p227
tp228
Rp229
sg27
g5
sg28
I2565
sg29
g5
sg30
I38
sg31
I111122
sg32
g5
sg33
I700000
sg34
g90
sg38
I698920
sg39
I37
sg40
g7
(g11
S"\xcd\x93\x06\x01\x9e<'@"
p230
tp231
Rp232
sg44
I13
sg45
g7
(g11
S'I\xaf\x8e:K\x80,@'
p233
tp234
Rp235
sg49
I698920
sg50
I257486
sg51
I1545059
sg52
g5
ssS'GIBBS DANA R'
p236
(dp237
g3
I169
sg4
I504610
sg6
g90
sg17
g5
sg18
I00
sg19
g5
sg20
S'dana.gibbs@enron.com'
p238
sg22
I461912
sg23
g90
sg27
g5
sg28
I23
sg29
g5
sg30
I12
sg31
g5
sg32
g5
sg33
g5
sg34
g90
sg38
I2218275
sg39
I0
sg40
g90
sg44
I0
sg45
g7
(g11
S'\xc4\x1c\xb7\xb5\x1b\x90+@'
p239
tp240
Rp241
sg49
g5
sg50
g5
sg51
I966522
sg52
I2218275
ssS'LOWRY CHARLES P'
p242
(dp243
g3
g5
sg4
g5
sg6
g90
sg17
g5
sg18
I00
sg19
g5
sg20
g5
sg22
g5
sg23
g90
sg27
I-153686
sg28
g5
sg29
g5
sg30
g5
sg31
g5
sg32
g5
sg33
g5
sg34
g90
sg38
I372205
sg39
g5
sg40
g90
sg44
g5
sg45
g90
sg49
I153686
sg50
g5
sg51
g5
sg52
I372205
ssS'COLWELL WESLEY'
p244
(dp245
g3
I1758
sg4
I27610
sg6
g7
(g11
S'\x98\xd8\xcd\xf5\xe3\xfe+@'
p246
tp247
Rp248
sg17
I16514
sg18
I01
sg19
I-144062
sg20
S'wes.colwell@enron.com'
p249
sg22
g5
sg23
g7
(g11
S'\xa0\xb4\xf03,%)@'
p250
tp251
Rp252
sg27
g5
sg28
I1132
sg29
g5
sg30
I40
sg31
I101740
sg32
g5
sg33
I1200000
sg34
g7
(g11
S'\xce}h\xa7W\x10`@'
p253
tp254
Rp255
sg38
I698242
sg39
I240
sg40
g7
(g11
S"\xfc\xf5?~t\x0f'@"
p256
tp257
Rp258
sg44
I11
sg45
g7
(g11
S'\xdb\\\xb1j\xd5m,@'
p259
tp260
Rp261
sg49
I698242
sg50
I288542
sg51
I1490344
sg52
g5
ssS'MULLER MARK S'
p262
(dp263
g3
I136
sg4
I842924
sg6
g7
(g11
S'R\x7f\x037W\xd2+@'
p264
tp265
Rp266
sg17
g5
sg18
I00
sg19
I-719000
sg20
S's..muller@enron.com'
p267
sg22
I1725545
sg23
g7
(g11
S'W\xa7W\x95#\xdf(@'
p268
tp269
Rp270
sg27
g5
sg28
I114
sg29
g5
sg30
I16
sg31
I947
sg32
g5
sg33
I1100000
sg34
g90
sg38
I1416848
sg39
I12
sg40
g7
(g11
S'\xb1\x80\x19\xe8\xdbj\x1b@'
p271
tp272
Rp273
sg44
I0
sg45
g7
(g11
S'3\x98\xc7\xf1g\xf5-@'
p274
tp275
Rp276
sg49
I360528
sg50
I251654
sg51
I3202070
sg52
I1056320
ssS'JACKSON CHARLENE R'
p277
(dp278
g3
I258
sg4
g5
sg6
g7
(g11
S'\xd0c\xe8\xbf\xc2\xdb(@'
p279
tp280
Rp281
sg17
I10181
sg18
I00
sg19
g5
sg20
S'charlene.jackson@enron.com'
p282
sg22
g5
sg23
g7
(g11
S'\xfc_\x82x3%)@'
p283
tp284
Rp285
sg27
g5
sg28
I117
sg29
g5
sg30
I56
sg31
I2435
sg32
g5
sg33
I250000
sg34
g7
(g11
S' pb6\xfa9Y@'
p286
tp287
Rp288
sg38
I725735
sg39
I25
sg40
g7
(g11
S'\xe4d\xddoD1\x1f@'
p289
tp290
Rp291
sg44
I19
sg45
g7
(g11
S'j\xeat\xdd\x8ap*@'
p292
tp293
Rp294
sg49
I540672
sg50
I288558
sg51
I551174
sg52
I185063
ssS'WESTFAHL RICHARD K'
p295
(dp296
g3
g5
sg4
g5
sg6
g90
sg17
I51870
sg18
I00
sg19
I-10800
sg20
S'dick.westfahl@enron.com'
p297
sg22
I256191
sg23
g7
(g11
S'\xcfwI2\x15 &@'
p298
tp299
Rp300
sg27
g5
sg28
g5
sg29
g5
sg30
g5
sg31
I401130
sg32
g5
sg33
g5
sg34
g7
(g11
S'c\xd0J\xdc\x10xl@'
p301
tp302
Rp303
sg38
I384930
sg39
g5
sg40
g7
(g11
S'\xec_\xc9\x9f\xd8\xcd)@'
p304
tp305
Rp306
sg44
g5
sg45
g7
(g11
S'\xec\x1as\xa6w\x16+@'
p307
tp308
Rp309
sg49
I384930
sg50
I63744
sg51
I762135
sg52
g5
ssS'WALTERS GARETH W'
p310
(dp311
g3
g5
sg4
I53625
sg6
g90
sg17
I33785
sg18
I00
sg19
g5
sg20
g5
sg22
g5
sg23
g90
sg27
g5
sg28
g5
sg29
g5
sg30
g5
sg31
g5
sg32
g5
sg33
g5
sg34
g7
(g11
S'h\x8e\xce\xee\xe8\xf9f@'
p312
tp313
Rp314
sg38
I1030329
sg39
g5
sg40
g90
sg44
g5
sg45
g7
(g11
S'y\x00s\r\xbc\xc1&@'
p315
tp316
Rp317
sg49
g5
sg50
g5
sg51
I87410
sg52
I1030329
ssS'WALLS JR ROBERT H'
p318
(dp319
g3
I671
sg4
g5
sg6
g7
(g11
S'Ds\xab\x12UN+@'
p320
tp321
Rp322
sg17
I50936
sg18
I00
sg19
g5
sg20
S'rob.walls@enron.com'
p323
sg22
I540751
sg23
g7
(g11
S'o.Q\x06N\x92)@'
p324
tp325
Rp326
sg27
g5
sg28
I215
sg29
g5
sg30
I146
sg31
I2
sg32
g5
sg33
I850000
sg34
g7
(g11
S"\xca\xc6\xfc\x0f'6l@"
p327
tp328
Rp329
sg38
I5898997
sg39
I17
sg40
g7
(g11
S'\x0b\x03\xadz\xea\x93\xf1?'
p330
tp331
Rp332
sg44
I0
sg45
g7
(g11
S'Q\xb1c@$\xce,@'
p333
tp334
Rp335
sg49
I1552453
sg50
I357091
sg51
I1798780
sg52
I4346544
ssS'KITCHEN LOUISE'
p336
(dp337
g3
I8305
sg4
g5
sg6
g7
(g11
S'k\xe7\x99\xc7\xd1\xe4-@'
p338
tp339
Rp340
sg17
I5774
sg18
I00
sg19
g5
sg20
S'louise.kitchen@enron.com'
p341
sg22
g5
sg23
g7
(g11
S'\xcf\xa2\x9d\xc9\xe4\x05)@'
p342
tp343
Rp344
sg27
g5
sg28
I3669
sg29
g5
sg30
I1728
sg31
I93925
sg32
g5
sg33
I3100000
sg34
g7
(g11
S'9F\xb34\x94\xffR@'
p345
tp346
Rp347
sg38
I547143
sg39
I251
sg40
g7
(g11
S' \xca\x03\xcf\x88\xe6&@'
p348
tp349
Rp350
sg44
I194
sg45
g7
(g11
S'Ln\x1e\x99\xb7\x1e.@'
p351
tp352
Rp353
sg49
I466101
sg50
I271442
sg51
I3471141
sg52
I81042
ssS'CHAN RONNIE'
p354
(dp355
g3
g5
sg4
g5
sg6
g90
sg17
g5
sg18
I00
sg19
I-98784
sg20
g5
sg22
g5
sg23
g90
sg27
I-32460
sg28
g5
sg29
g5
sg30
g5
sg31
g5
sg32
I98784
sg33
g5
sg34
g90
sg38
g5
sg39
g5
sg40
g90
sg44
g5
sg45
g90
sg49
I32460
sg50
g5
sg51
g5
sg52
g5
ssS'BELFER ROBERT'
p356
(dp357
g3
g5
sg4
I-102500
sg6
g90
sg17
g5
sg18
I00
sg19
g5
sg20
g5
sg22
g5
sg23
g90
sg27
I44093
sg28
g5
sg29
g5
sg30
g5
sg31
g5
sg32
I3285
sg33
g5
sg34
g90
sg38
I-44093
sg39
g5
sg40
g90
sg44
g5
sg45
g7
(g11
S"'\x91\xf0;E\x13'@"
p358
tp359
Rp360
sg49
g5
sg50
g5
sg51
I102500
sg52
I3285
ssS'SHANKMAN JEFFREY A'
p361
(dp362
g3
I3221
sg4
g5
sg6
g7
(g11
S'\x9a\x9aF\xdan\x04-@'
p363
tp364
Rp365
sg17
I178979
sg18
I00
sg19
g5
sg20
S'jeffrey.shankman@enron.com'
p366
sg22
I554422
sg23
g7
(g11
S'\x1e\xa5\xe9\xd5\x13@)@'
p367
tp368
Rp369
sg27
g5
sg28
I1730
sg29
g5
sg30
I2681
sg31
I1191
sg32
g5
sg33
I2000000
sg34
g7
(g11
S'*R\x86\xe7\xf6pz@'
p370
tp371
Rp372
sg38
I2072035
sg39
I94
sg40
g7
(g11
S'\xe7\xbc\xb9\x9fcU\x1c@'
p373
tp374
Rp375
sg44
I83
sg45
g7
(g11
S'a\x81\x1f\x19\x98\xda-@'
p376
tp377
Rp378
sg49
I630137
sg50
I304110
sg51
I3038702
sg52
I1441898
ssS'WODRASKA JOHN'
p379
(dp380
g3
g5
sg4
g5
sg6
g90
sg17
g5
sg18
I00
sg19
g5
sg20
S'john.wodraska@enron.com'
p381
sg22
g5
sg23
g90
sg27
g5
sg28
g5
sg29
g5
sg30
g5
sg31
I189583
sg32
g5
sg33
g5
sg34
g90
sg38
g5
sg39
g5
sg40
g7
(g11
S'Ly\x1f\xf2\x1fN(@'
p382
tp383
Rp384
sg44
g5
sg45
g7
(g11
S'w\xbd\x1c\xa3 N(@'
p385
tp386
Rp387
sg49
g5
sg50
g5
sg51
I189583
sg52
g5
ssS'BERGSIEKER RICHARD P'
p388
(dp389
g3
I383
sg4
g5
sg6
g7
(g11
S'\xd0c\xe8\xbf\xc2\xdb(@'
p390
tp391
Rp392
sg17
I59175
sg18
I00
sg19
I-485813
sg20
S'rick.bergsieker@enron.com'
p393
sg22
I180250
sg23
g7
(g11
S'\x04\xae>9\x9fI(@'
p394
tp395
Rp396
sg27
g5
sg28
I233
sg29
g5
sg30
I59
sg31
I427316
sg32
g5
sg33
I250000
sg34
g7
(g11
S'\x0ce\xda\x8e[hn@'
p397
tp398
Rp399
sg38
I659249
sg39
I4
sg40
g7
(g11
S'\x17lH]9\xee)@'
p400
tp401
Rp402
sg44
I0
sg45
g7
(g11
S'O*`\x92\xd6\xab*@'
p403
tp404
Rp405
sg49
I659249
sg50
I187922
sg51
I618850
sg52
g5
ssS'URQUHART JOHN A'
p406
(dp407
g3
g5
sg4
g5
sg6
g90
sg17
I228656
sg18
I00
sg19
I-36666
sg20
g5
sg22
g5
sg23
g90
sg27
g5
sg28
g5
sg29
g5
sg30
g5
sg31
g5
sg32
I36666
sg33
g5
sg34
g7
(g11
S'\x10m\xdd\x14\xe5\xe2}@'
p408
tp409
Rp410
sg38
g5
sg39
g5
sg40
g90
sg44
g5
sg45
g7
(g11
S'\xbd\xb0\xf06\x12\xae(@'
p411
tp412
Rp413
sg49
g5
sg50
g5
sg51
I228656
sg52
g5
ssS'BIBI PHILIPPE A'
p414
(dp415
g3
I1607
sg4
g5
sg6
g7
(g11
S'\xc8\xed\x1d\xbb\x8a\xa1+@'
p416
tp417
Rp418
sg17
I38559
sg18
I00
sg19
g5
sg20
S'philippe.bibi@enron.com'
p419
sg22
I369721
sg23
g7
(g11
S'e3\x00\xdaA\x8b(@'
p420
tp421
Rp422
sg27
g5
sg28
I1336
sg29
g5
sg30
I40
sg31
I425688
sg32
g5
sg33
I1000000
sg34
g7
(g11
S'P\xda\xc8}\xbe\x8bh@'
p423
tp424
Rp425
sg38
I1843816
sg39
I23
sg40
g7
(g11
S'\xa6\xf3\xdd\x0cE\xec)@'
p426
tp427
Rp428
sg44
I8
sg45
g7
(g11
S'\x15\xed\xe6oy\x10-@'
p429
tp430
Rp431
sg49
I378082
sg50
I213625
sg51
I2047593
sg52
I1465734
ssS'RIEKER PAULA H'
p432
(dp433
g3
I1328
sg4
I214678
sg6
g7
(g11
S'3IX\xb0\xec\xea*@'
p434
tp435
Rp436
sg17
I33271
sg18
I01
sg19
I-100000
sg20
S'paula.rieker@enron.com'
p437
sg22
g5
sg23
g7
(g11
S'\xdb\x03I\xb3\x1f\xda(@'
p438
tp439
Rp440
sg27
g5
sg28
I1258
sg29
g5
sg30
I82
sg31
I1950
sg32
g5
sg33
I700000
sg34
g7
(g11
S'\xc9\x16\xd5\x19\xff\xccf@'
p441
tp442
Rp443
sg38
I1918887
sg39
I35
sg40
g7
(g11
S"\xc4'\x15v\xecM\x1e@"
p444
tp445
Rp446
sg44
I48
sg45
g7
(g11
S'\xb6J\xb4\x0c\xec\xd1+@'
p447
tp448
Rp449
sg49
I283649
sg50
I249201
sg51
I1099100
sg52
I1635238
ssS'WHALEY DAVID A'
p450
(dp451
g3
g5
sg4
g5
sg6
g90
sg17
g5
sg18
I00
sg19
g5
sg20
g5
sg22
g5
sg23
g90
sg27
g5
sg28
g5
sg29
g5
sg30
g5
sg31
g5
sg32
g5
sg33
g5
sg34
g90
sg38
I98718
sg39
g5
sg40
g90
sg44
g5
sg45
g90
sg49
g5
sg50
g5
sg51
g5
sg52
I98718
ssS'BECK SALLY W'
p452
(dp453
g3
I7315
sg4
g5
sg6
g7
(g11
S'3IX\xb0\xec\xea*@'
p454
tp455
Rp456
sg17
I37172
sg18
I00
sg19
g5
sg20
S'sally.beck@enron.com'
p457
sg22
g5
sg23
g7
(g11
S'\xa2D\x8f\x1e\x06\xb4(@'
p458
tp459
Rp460
sg27
g5
sg28
I2639
sg29
g5
sg30
I4343
sg31
I566
sg32
g5
sg33
I700000
sg34
g7
(g11
S'\xaa\x18i>\xb2\x19h@'
p461
tp462
Rp463
sg38
I126027
sg39
I144
sg40
g7
(g11
S'\xa0\x999&\x87\\\x19@'
p464
tp465
Rp466
sg44
I386
sg45
g7
(g11
S'm\xec\xfa\x85t\x91+@'
p467
tp468
Rp469
sg49
I126027
sg50
I231330
sg51
I969068
sg52
g5
ssS'HAUG DAVID L'
p470
(dp471
g3
I573
sg4
g5
sg6
g90
sg17
I475
sg18
I00
sg19
g5
sg20
S'david.haug@enron.com'
p472
sg22
g5
sg23
g90
sg27
g5
sg28
I471
sg29
g5
sg30
I19
sg31
g5
sg32
g5
sg33
g5
sg34
g7
(g11
S'\xc5\xad\xdb\xb6B\xd15@'
p473
tp474
Rp475
sg38
I2217299
sg39
I4
sg40
g90
sg44
I7
sg45
g7
(g11
S'\xdb\x9fgq\x89\xab\x18@'
p476
tp477
Rp478
sg49
I2217299
sg50
g5
sg51
I475
sg52
g5
ssS'ECHOLS JOHN B'
p479
(dp480
g3
g5
sg4
g5
sg6
g7
(g11
S'\xc4\xdeW\x02\x83i(@'
p481
tp482
Rp483
sg17
I21530
sg18
I00
sg19
g5
sg20
S'john.echols@enron.com'
p484
sg22
I2234774
sg23
g7
(g11
S'A7\x93\xa0\xea9(@'
p485
tp486
Rp487
sg27
g5
sg28
g5
sg29
g5
sg30
g5
sg31
I53775
sg32
g5
sg33
I200000
sg34
g7
(g11
S'\x00\xdb\xbd\xa5\x80Wb@'
p488
tp489
Rp490
sg38
I1008941
sg39
g5
sg40
g7
(g11
S'\xb1(z\x94\x00\xc9%@'
p491
tp492
Rp493
sg44
g5
sg45
g7
(g11
S'\xc9\xf4\xb2\x07\xa1\x9c-@'
p494
tp495
Rp496
sg49
I407503
sg50
I182245
sg51
I2692324
sg52
I601438
ssS'MENDELSOHN JOHN'
p497
(dp498
g3
g5
sg4
g5
sg6
g90
sg17
I148
sg18
I00
sg19
I-103750
sg20
g5
sg22
g5
sg23
g90
sg27
g5
sg28
g5
sg29
g5
sg30
g5
sg31
g5
sg32
I103750
sg33
g5
sg34
g7
(g11
S'F\xc3\\\xa8\xc1i(@'
p499
tp500
Rp501
sg38
g5
sg39
g5
sg40
g90
sg44
g5
sg45
g7
(g11
S'\x9aN\x81\xfa\xe3\n\x14@'
p502
tp503
Rp504
sg49
g5
sg50
g5
sg51
I148
sg52
g5
ssS'HICKERSON GARY J'
p505
(dp506
g3
I1320
sg4
g5
sg6
g7
(g11
S'\xef0\xde.9\xb1,@'
p507
tp508
Rp509
sg17
I98849
sg18
I00
sg19
g5
sg20
S'gary.hickerson@enron.com'
p510
sg22
I69223
sg23
g7
(g11
S'\x1dDU\xe0\xd5\x86(@'
p511
tp512
Rp513
sg27
g5
sg28
I900
sg29
g5
sg30
I27
sg31
I1936
sg32
g5
sg33
I1700000
sg34
g7
(g11
S'\x12\xf7\xc9\x98w\xa6s@'
p514
tp515
Rp516
sg38
I441096
sg39
I40
sg40
g7
(g11
S'U\xad\xb4\x95\x8cF\x1e@'
p517
tp518
Rp519
sg44
I1
sg45
g7
(g11
S'\x8a\x7f\xf2\xc6\xf4\x18-@'
p520
tp521
Rp522
sg49
I441096
sg50
I211788
sg51
I2081796
sg52
g5
ssS'CLINE KENNETH W'
p523
(dp524
g3
g5
sg4
g5
sg6
g90
sg17
g5
sg18
I00
sg19
g5
sg20
g5
sg22
g5
sg23
g90
sg27
I-472568
sg28
g5
sg29
g5
sg30
g5
sg31
g5
sg32
g5
sg33
g5
sg34
g90
sg38
I189518
sg39
g5
sg40
g90
sg44
g5
sg45
g90
sg49
I662086
sg50
g5
sg51
g5
sg52
g5
ssS'LEWIS RICHARD'
p525
(dp526
g3
I952
sg4
g5
sg6
g90
sg17
g5
sg18
I00
sg19
g5
sg20
S'richard.lewis@enron.com'
p527
sg22
g5
sg23
g90
sg27
g5
sg28
I739
sg29
g5
sg30
I26
sg31
g5
sg32
g5
sg33
g5
sg34
g90
sg38
I850477
sg39
I10
sg40
g90
sg44
I0
sg45
g90
sg49
g5
sg50
g5
sg51
g5
sg52
I850477
ssS'HAYES ROBERT E'
p528
(dp529
g3
I504
sg4
I7961
sg6
g90
sg17
g5
sg18
I00
sg19
g5
sg20
S'robert.hayes@enron.com'
p530
sg22
g5
sg23
g90
sg27
g5
sg28
I50
sg29
g5
sg30
I12
sg31
g5
sg32
g5
sg33
g5
sg34
g90
sg38
I151418
sg39
I16
sg40
g90
sg44
I0
sg45
g7
(g11
S'\xb2"[?\x12\xf7!@'
p531
tp532
Rp533
sg49
I151418
sg50
g5
sg51
I7961
sg52
g5
ssS'MCCARTY DANNY J'
p534
(dp535
g3
I1433
sg4
g5
sg6
g90
sg17
g5
sg18
I00
sg19
g5
sg20
S'danny.mccarty@enron.com'
p536
sg22
g5
sg23
g90
sg27
g5
sg28
I508
sg29
g5
sg30
I215
sg31
g5
sg32
g5
sg33
g5
sg34
g90
sg38
I758931
sg39
I25
sg40
g90
sg44
I2
sg45
g90
sg49
I94556
sg50
g5
sg51
g5
sg52
I664375
ssS'KOPPER MICHAEL J'
p537
(dp538
g3
g5
sg4
g5
sg6
g7
(g11
S'\x92\xfeb\xe4J/+@'
p539
tp540
Rp541
sg17
I118134
sg18
I01
sg19
g5
sg20
S'michael.kopper@enron.com'
p542
sg22
I602671
sg23
g7
(g11
S'\xf8vL\x16<\xa4(@'
p543
tp544
Rp545
sg27
g5
sg28
g5
sg29
g5
sg30
g5
sg31
I907502
sg32
g5
sg33
I800000
sg34
g7
(g11
S'\xa3\\\x1b\xd7R{u@'
p546
tp547
Rp548
sg38
I985032
sg39
g5
sg40
g7
(g11
S'8\xb8\xd7\xf5\xd8o+@'
p549
tp550
Rp551
sg44
g5
sg45
g7
(g11
S'\xfbg\x04O\x05\x95-@'
p552
tp553
Rp554
sg49
I985032
sg50
I224305
sg51
I2652612
sg52
g5
ssS'LEFF DANIEL P'
p555
(dp556
g3
I2822
sg4
g5
sg6
g7
(g11
S'\xc8\xed\x1d\xbb\x8a\xa1+@'
p557
tp558
Rp559
sg17
g5
sg18
I00
sg19
g5
sg20
S'dan.leff@enron.com'
p560
sg22
I1387399
sg23
g7
(g11
S'\x89d\xa7\x9f8\n)@'
p561
tp562
Rp563
sg27
g5
sg28
I2672
sg29
g5
sg30
I63
sg31
I3083
sg32
g5
sg33
I1000000
sg34
g90
sg38
I360528
sg39
I67
sg40
g7
(g11
S'\xa8/\\/f\x11 @'
p564
tp565
Rp566
sg44
I14
sg45
g7
(g11
S'\x87U\xa8\x07B\x97-@'
p567
tp568
Rp569
sg49
I360528
sg50
I273746
sg51
I2664228
sg52
g5
ssS'LAVORATO JOHN J'
p570
(dp571
g3
I7259
sg4
g5
sg6
g7
(g11
S'a\xa8\x90-7\xca/@'
p572
tp573
Rp574
sg17
I49537
sg18
I00
sg19
g5
sg20
S'john.lavorato@enron.com'
p575
sg22
I2035380
sg23
g7
(g11
S'\xb1\xb6S\xdd\x1ex)@'
p576
tp577
Rp578
sg27
g5
sg28
I3962
sg29
g5
sg30
I2585
sg31
I1552
sg32
g5
sg33
I8000000
sg34
g7
(g11
S'5)GdH\xd2k@'
p579
tp580
Rp581
sg38
I5167144
sg39
I528
sg40
g7
(g11
S'E\x13\xb5bKd\x1d@'
p582
tp583
Rp584
sg44
I411
sg45
g7
(g11
S'49\x81\x01\xe8(0@'
p585
tp586
Rp587
sg49
I1008149
sg50
I339288
sg51
I10425757
sg52
I4158995
ssS'BERBERIAN DAVID'
p588
(dp589
g3
g5
sg4
g5
sg6
g90
sg17
I11892
sg18
I00
sg19
g5
sg20
S'david.berberian@enron.com'
p590
sg22
g5
sg23
g7
(g11
S'<\xf9i\xb1K\x92(@'
p591
tp592
Rp593
sg27
g5
sg28
g5
sg29
g5
sg30
g5
sg31
g5
sg32
g5
sg33
g5
sg34
g7
(g11
S'9\xcd\xd9\xa4\x85C[@'
p594
tp595
Rp596
sg38
I2493616
sg39
g5
sg40
g90
sg44
g5
sg45
g7
(g11
S'?c\xb4\xd8\xa9\xad(@'
p597
tp598
Rp599
sg49
I869220
sg50
I216582
sg51
I228474
sg52
I1624396
ssS'DETMERING TIMOTHY J'
p600
(dp601
g3
g5
sg4
I875307
sg6
g7
(g11
S'C\x995\nq\xeb)@'
p602
tp603
Rp604
sg17
I52255
sg18
I00
sg19
I-775241
sg20
S'timothy.detmering@enron.com'
p605
sg22
I415657
sg23
g7
(g11
S'+[+T\xb6\x83(@'
p606
tp607
Rp608
sg27
I-315068
sg28
g5
sg29
g5
sg30
g5
sg31
I1105
sg32
g5
sg33
I425000
sg34
g7
(g11
S'\xf0F\xb3\x14\x10\x93l@'
p609
tp610
Rp611
sg38
I2027865
sg39
g5
sg40
g7
(g11
S'G\x8f\x1b\x95\xb5\x08\x1c@'
p612
tp613
Rp614
sg44
g5
sg45
g7
(g11
S'\x11\x05n\xb3\xd7\x00,@'
p615
tp616
Rp617
sg49
I315068
sg50
I210500
sg51
I1204583
sg52
I2027865
ssS'WAKEHAM JOHN'
p618
(dp619
g3
g5
sg4
g5
sg6
g90
sg17
I103773
sg18
I00
sg19
g5
sg20
g5
sg22
g5
sg23
g90
sg27
g5
sg28
g5
sg29
g5
sg30
g5
sg31
g5
sg32
I109298
sg33
g5
sg34
g7
(g11
S'Q\x87VL<"t@'
p620
tp621
Rp622
sg38
g5
sg39
g5
sg40
g90
sg44
g5
sg45
g7
(g11
S'\x06\xdf\x17\x80\xed\x89(@'
p623
tp624
Rp625
sg49
g5
sg50
g5
sg51
I213071
sg52
g5
ssS'POWERS WILLIAM'
p626
(dp627
g3
I653
sg4
g5
sg6
g90
sg17
g5
sg18
I00
sg19
I-17500
sg20
S'ken.powers@enron.com'
p628
sg22
g5
sg23
g90
sg27
g5
sg28
I12
sg29
g5
sg30
I26
sg31
g5
sg32
I17500
sg33
g5
sg34
g90
sg38
g5
sg39
I0
sg40
g90
sg44
I0
sg45
g90
sg49
g5
sg50
g5
sg51
g5
sg52
g5
ssS'GOLD JOSEPH'
p629
(dp630
g3
g5
sg4
g5
sg6
g7
(g11
S'\xd1\x95\xc3\xb5?\x0e+@'
p631
tp632
Rp633
sg17
g5
sg18
I00
sg19
g5
sg20
S'joe.gold@enron.com'
p634
sg22
I304805
sg23
g7
(g11
S'\xff(,R\x99\x08)@'
p635
tp636
Rp637
sg27
g5
sg28
g5
sg29
g5
sg30
g5
sg31
I819288
sg32
g5
sg33
I750000
sg34
g90
sg38
I877611
sg39
g5
sg40
g7
(g11
S'\xa1\xecC\x8a};+@'
p638
tp639
Rp640
sg44
g5
sg45
g7
(g11
S'`\xd2\xabt\xbd(-@'
p641
tp642
Rp643
sg49
I441096
sg50
I272880
sg51
I2146973
sg52
I436515
ssS'BANNANTINE JAMES M'
p644
(dp645
g3
I566
sg4
g5
sg6
g90
sg17
I56301
sg18
I00
sg19
I-5104
sg20
S'james.bannantine@enron.com'
p646
sg22
g5
sg23
g7
(g11
S'\x8cU\nH\xd2\xaf\x18@'
p647
tp648
Rp649
sg27
I-560222
sg28
I465
sg29
g5
sg30
I29
sg31
I864523
sg32
g5
sg33
g5
sg34
g7
(g11
S'#\xbdu=\xf9\xa8m@'
p650
tp651
Rp652
sg38
I5243487
sg39
I39
sg40
g7
(g11
S'52p\xa2\x01W+@'
p653
tp654
Rp655
sg44
I0
sg45
g7
(g11
S'\xca&\x00\xf5\xbat+@'
p656
tp657
Rp658
sg49
I1757552
sg50
I477
sg51
I916197
sg52
I4046157
ssS'DUNCAN JOHN H'
p659
(dp660
g3
g5
sg4
g5
sg6
g90
sg17
g5
sg18
I00
sg19
I-25000
sg20
g5
sg22
g5
sg23
g90
sg27
g5
sg28
g5
sg29
g5
sg30
g5
sg31
g5
sg32
I102492
sg33
g5
sg34
g90
sg38
I371750
sg39
g5
sg40
g90
sg44
g5
sg45
g7
(g11
S'jh\x1d\xc8\x12\x84&@'
p661
tp662
Rp663
sg49
g5
sg50
g5
sg51
I77492
sg52
I371750
ssS'SHAPIRO RICHARD S'
p664
(dp665
g3
I15149
sg4
g5
sg6
g7
(g11
S'\xe9\xaf\x1e9\xfb\xc4*@'
p666
tp667
Rp668
sg17
I137767
sg18
I00
sg19
g5
sg20
S'richard.shapiro@enron.com'
p669
sg22
g5
sg23
g7
(g11
S'Y\x8etOi\x01)@'
p670
tp671
Rp672
sg27
g5
sg28
I4527
sg29
g5
sg30
I1215
sg31
I705
sg32
g5
sg33
I650000
sg34
g7
(g11
S'\x1e\xc6\xde\xe7\xbc2w@'
p673
tp674
Rp675
sg38
I987001
sg39
I74
sg40
g7
(g11
S'\xca\x81\xdd\xc6\x0b=\x1a@'
p676
tp677
Rp678
sg44
I65
sg45
g7
(g11
S'\xa2k\xdb\xb80\xbe+@'
p679
tp680
Rp681
sg49
I379164
sg50
I269076
sg51
I1057548
sg52
I607837
ssS'SHERRIFF JOHN R'
p682
(dp683
g3
I3187
sg4
g5
sg6
g7
(g11
S'f\x9bT\xcf#q,@'
p684
tp685
Rp686
sg17
g5
sg18
I00
sg19
g5
sg20
S'john.sherriff@enron.com'
p687
sg22
I554422
sg23
g7
(g11
S'v\x06|\xf5\xf9\xef)@'
p688
tp689
Rp690
sg27
g5
sg28
I2103
sg29
g5
sg30
I92
sg31
I1852186
sg32
g5
sg33
I1500000
sg34
g90
sg38
I3128982
sg39
I28
sg40
g7
(g11
S'g\xd9\x9b\x11\x1f\xdd,@'
p691
tp692
Rp693
sg44
I23
sg45
g7
(g11
S'&\xb1\xb2\x86\x8c\x90.@'
p694
tp695
Rp696
sg49
I1293424
sg50
I428780
sg51
I4335388
sg52
I1835558
ssS'SHELBY REX'
p697
(dp698
g3
I225
sg4
g5
sg6
g7
(g11
S'\xc4\xdeW\x02\x83i(@'
p699
tp700
Rp701
sg17
I22884
sg18
I01
sg19
I-4167
sg20
S'rex.shelby@enron.com'
p702
sg22
g5
sg23
g7
(g11
S'c:b\x87\xf8\x86(@'
p703
tp704
Rp705
sg27
g5
sg28
I91
sg29
g5
sg30
I39
sg31
I1573324
sg32
g5
sg33
I200000
sg34
g7
(g11
S'\xbd\xac\x8cy\xe4\xe8b@'
p706
tp707
Rp708
sg38
I2493616
sg39
I13
sg40
g7
(g11
S'\x85\x8cXG\x93\x89,@'
p709
tp710
Rp711
sg44
I14
sg45
g7
(g11
S'\xc6\x96?Gm\x05-@'
p712
tp713
Rp714
sg49
I869220
sg50
I211844
sg51
I2003885
sg52
I1624396
ssS'LEMAISTRE CHARLES'
p715
(dp716
g3
g5
sg4
g5
sg6
g90
sg17
g5
sg18
I00
sg19
I-25000
sg20
g5
sg22
g5
sg23
g90
sg27
g5
sg28
g5
sg29
g5
sg30
g5
sg31
g5
sg32
I112492
sg33
g5
sg34
g90
sg38
I412878
sg39
g5
sg40
g90
sg44
g5
sg45
g7
(g11
S'\x81\xc2\xa5\xf36\xc2&@'
p717
tp718
Rp719
sg49
g5
sg50
g5
sg51
I87492
sg52
I412878
ssS'DEFFNER JOSEPH M'
p720
(dp721
g3
I714
sg4
g5
sg6
g7
(g11
S'\x10z\xd4\xe1\xff\x9b*@'
p722
tp723
Rp724
sg17
I41626
sg18
I00
sg19
g5
sg20
S'joseph.deffner@enron.com'
p725
sg22
I335349
sg23
g7
(g11
S'\x07\x1aW\xec\xf2x(@'
p726
tp727
Rp728
sg27
g5
sg28
I552
sg29
g5
sg30
I74
sg31
I25553
sg32
g5
sg33
I600000
sg34
g7
(g11
S'\xfb\x82 \xd9\xdc\x80i@'
p729
tp730
Rp731
sg38
I159211
sg39
I115
sg40
g7
(g11
S'\xdf\x01\xfd\xa1\x0eL$@'
p732
tp733
Rp734
sg44
I4
sg45
g7
(g11
S'\xf9W\x8ea\x91\x02,@'
p735
tp736
Rp737
sg49
I141833
sg50
I206121
sg51
I1208649
sg52
I17378
ssS'KISHKILL JOSEPH G'
p738
(dp739
g3
g5
sg4
g5
sg6
g90
sg17
I116335
sg18
I00
sg19
I-51042
sg20
S'joe.kishkill@enron.com'
p740
sg22
g5
sg23
g7
(g11
S'w9\xa9\xad\xef"(@'
p741
tp742
Rp743
sg27
g5
sg28
g5
sg29
g5
sg30
g5
sg31
I465357
sg32
g5
sg33
g5
sg34
g7
(g11
S'\x18j\x95HJQu@'
p744
tp745
Rp746
sg38
I1034346
sg39
g5
sg40
g7
(g11
S'D!\x9dL\xe3\x19*@'
p747
tp748
Rp749
sg44
g5
sg45
g7
(g11
S'\x19\x98\xf6o~\xee*@'
p750
tp751
Rp752
sg49
I1034346
sg50
I174246
sg51
I704896
sg52
g5
ssS'WHALLEY LAWRENCE G'
p753
(dp754
g3
I6019
sg4
g5
sg6
g7
(g11
S'\xa3\xef\x14\xf4\x07\xd4-@'
p755
tp756
Rp757
sg17
I57838
sg18
I00
sg19
g5
sg20
S'greg.whalley@enron.com'
p758
sg22
I808346
sg23
g7
(g11
S':\xf4#\x03(I*@'
p759
tp760
Rp761
sg27
g5
sg28
I3920
sg29
g5
sg30
I556
sg31
I301026
sg32
g5
sg33
I3000000
sg34
g7
(g11
S'\xc1\xc8\xfd\xb5\xea\x0fn@'
p762
tp763
Rp764
sg38
I6079137
sg39
I186
sg40
g7
(g11
S'm\xa9\xcei\xdb:)@'
p765
tp766
Rp767
sg44
I24
sg45
g7
(g11
S'`\x07\x12\xddq\xb7.@'
p768
tp769
Rp770
sg49
I2796177
sg50
I510364
sg51
I4677574
sg52
I3282960
ssS'MCCONNELL MICHAEL S'
p771
(dp772
g3
I3329
sg4
g5
sg6
g7
(g11
S'R\x7f\x037W\xd2+@'
p773
tp774
Rp775
sg17
I81364
sg18
I00
sg19
g5
sg20
S'mike.mcconnell@enron.com'
p776
sg22
I554422
sg23
g7
(g11
S'o\xe7U\x02\x93\x9d)@'
p777
tp778
Rp779
sg27
g5
sg28
I2189
sg29
g5
sg30
I2742
sg31
I540
sg32
g5
sg33
I1100000
sg34
g7
(g11
S'\xde\xf4\x19\x9a\xed\xd3q@'
p780
tp781
Rp782
sg38
I3101279
sg39
I92
sg40
g7
(g11
S'k\xa5z\x1av,\x19@'
p783
tp784
Rp785
sg44
I194
sg45
g7
(g11
S"'\x05\x02\x0b\xbf\x1d-@"
p786
tp787
Rp788
sg49
I1478269
sg50
I365038
sg51
I2101364
sg52
I1623010
ssS'PIRO JIM'
p789
(dp790
g3
I58
sg4
g5
sg6
g90
sg17
g5
sg18
I00
sg19
g5
sg20
S'jim.piro@enron.com'
p791
sg22
g5
sg23
g90
sg27
g5
sg28
I3
sg29
g5
sg30
I16
sg31
g5
sg32
g5
sg33
g5
sg34
g90
sg38
I47304
sg39
I0
sg40
g90
sg44
I1
sg45
g90
sg49
I47304
sg50
g5
sg51
g5
sg52
g5
ssS'DELAINEY DAVID W'
p792
(dp793
g3
I3093
sg4
g5
sg6
g7
(g11
S'\xa3\xef\x14\xf4\x07\xd4-@'
p794
tp795
Rp796
sg17
I86174
sg18
I01
sg19
g5
sg20
S'david.delainey@enron.com'
p797
sg22
I1294981
sg23
g7
(g11
S'\xf3yZ\xe2\xbf\x9d)@'
p798
tp799
Rp800
sg27
g5
sg28
I2097
sg29
g5
sg30
I3069
sg31
I1661
sg32
g5
sg33
I3000000
sg34
g7
(g11
S'\xb9\xa9\xc3\x80\xe4Xr@'
p801
tp802
Rp803
sg38
I3614261
sg39
I66
sg40
g7
(g11
S'\x0c[\x7fp\xc1\xa9\x1d@'
p804
tp805
Rp806
sg44
I609
sg45
g7
(g11
S'\xb7f\xc3\x01\x18\xbf.@'
p807
tp808
Rp809
sg49
I1323148
sg50
I365163
sg51
I4747979
sg52
I2291113
ssS'SULLIVAN-SHAKLOVITZ COLLEEN'
p810
(dp811
g3
g5
sg4
I181993
sg6
g7
(g11
S"\xf6\x94-z\x9f\x06'@"
p812
tp813
Rp814
sg17
g5
sg18
I00
sg19
g5
sg20
g5
sg22
I554422
sg23
g7
(g11
S'\x0e%\xdf\x1a\x15\x00(@'
p815
tp816
Rp817
sg27
g5
sg28
g5
sg29
g5
sg30
g5
sg31
I162
sg32
g5
sg33
I100000
sg34
g90
sg38
I1362375
sg39
g5
sg40
g7
(g11
S'{\xd5y\r\x00`\x14@'
p818
tp819
Rp820
sg44
g5
sg45
g7
(g11
S'f\x00\xb3l6\xa1+@'
p821
tp822
Rp823
sg49
g5
sg50
I162779
sg51
I999356
sg52
I1362375
ssS'WROBEL BRUCE'
p824
(dp825
g3
g5
sg4
g5
sg6
g90
sg17
g5
sg18
I00
sg19
g5
sg20
g5
sg22
g5
sg23
g90
sg27
g5
sg28
g5
sg29
g5
sg30
g5
sg31
g5
sg32
g5
sg33
g5
sg34
g90
sg38
I139130
sg39
g5
sg40
g90
sg44
g5
sg45
g90
sg49
g5
sg50
g5
sg51
g5
sg52
I139130
ssS'LINDHOLM TOD A'
p826
(dp827
g3
g5
sg4
I204075
sg6
g7
(g11
S'\xc4\xdeW\x02\x83i(@'
p828
tp829
Rp830
sg17
I57727
sg18
I00
sg19
g5
sg20
S'tod.lindholm@enron.com'
p831
sg22
I175000
sg23
g7
(g11
S'R)\xb0V?\xbf(@'
p832
tp833
Rp834
sg27
g5
sg28
g5
sg29
g5
sg30
g5
sg31
I2630
sg32
g5
sg33
I200000
sg34
g7
(g11
S'kZ0R\x87\x08n@'
p835
tp836
Rp837
sg38
I3064208
sg39
g5
sg40
g7
(g11
S'\x1a\xab\xd0D\x1f\x80\x1f@'
p838
tp839
Rp840
sg44
g5
sg45
g7
(g11
S'\xf4\x99$\xc6\xb1]+@'
p841
tp842
Rp843
sg49
I514847
sg50
I236457
sg51
I875889
sg52
I2549361
ssS'MEYER JEROME J'
p844
(dp845
g3
g5
sg4
g5
sg6
g90
sg17
I2151
sg18
I00
sg19
I-38346
sg20
g5
sg22
g5
sg23
g90
sg27
g5
sg28
g5
sg29
g5
sg30
g5
sg31
g5
sg32
I38346
sg33
g5
sg34
g7
(g11
S' \x1f\xd2.\xe01G@'
p846
tp847
Rp848
sg38
g5
sg39
g5
sg40
g90
sg44
g5
sg45
g7
(g11
S'\x0c\xf5\xe1\xed\xce\xb2\x1e@'
p849
tp850
Rp851
sg49
g5
sg50
g5
sg51
I2151
sg52
g5
ssS'LAY KENNETH L'
p852
(dp853
g3
I4273
sg4
I202911
sg6
g7
(g11
S'\x13m!\xf4\xd8\x85/@'
p854
tp855
Rp856
sg17
I99832
sg18
I01
sg19
I-300000
sg20
S'kenneth.lay@enron.com'
p857
sg22
I3600000
sg23
g7
(g11
S'\xd9R\xbb\x01K\xc5+@'
p858
tp859
Rp860
sg27
g5
sg28
I2411
sg29
I81525000
sg30
I36
sg31
I10359729
sg32
g5
sg33
I7000000
sg34
g7
(g11
S'\x13\x8f\x99\xedj\xbfs@'
p861
tp862
Rp863
sg38
I49110078
sg39
I123
sg40
g7
(g11
S"\x8c\xdd4\xa1G'0@"
p864
tp865
Rp866
sg44
I16
sg45
g7
(g11
S'7\xb3\xc4\x1d\xa6t2@'
p867
tp868
Rp869
sg49
I14761694
sg50
I1072321
sg51
I103559793
sg52
I34348384
ssS'BUTTS ROBERT H'
p870
(dp871
g3
g5
sg4
g5
sg6
g7
(g11
S'\xd1\x95\xc3\xb5?\x0e+@'
p872
tp873
Rp874
sg17
I9410
sg18
I00
sg19
I-75000
sg20
S'bob.butts@enron.com'
p875
sg22
I175000
sg23
g7
(g11
S'f1\x06\xff\xd1\xf2(@'
p876
tp877
Rp878
sg27
g5
sg28
g5
sg29
g5
sg30
g5
sg31
I150656
sg32
g5
sg33
I750000
sg34
g7
(g11
S'\x9d)\xf3\xe5\xa8@X@'
p879
tp880
Rp881
sg38
I417619
sg39
g5
sg40
g7
(g11
S"\xde\x9a\x85!t\xd8'@"
p882
tp883
Rp884
sg44
g5
sg45
g7
(g11
S'T\xd6bf\x8e\x1c,@'
p885
tp886
Rp887
sg49
I417619
sg50
I261516
sg51
I1271582
sg52
g5
ssS'OLSON CINDY K'
p888
(dp889
g3
I1184
sg4
I77716
sg6
g7
(g11
S'\xd1\x95\xc3\xb5?\x0e+@'
p890
tp891
Rp892
sg17
I63791
sg18
I00
sg19
g5
sg20
S'cindy.olson@enron.com'
p893
sg22
I100000
sg23
g7
(g11
S'\xb1\x83\x96\x0czh)@'
p894
tp895
Rp896
sg27
g5
sg28
I856
sg29
g5
sg30
I52
sg31
I972
sg32
g5
sg33
I750000
sg34
g7
(g11
S')\xd2\xf1\xd8C\x92o@'
p897
tp898
Rp899
sg38
I2606763
sg39
I20
sg40
g7
(g11
S'\xa8\xa1\xa3g\x83\x85\x1b@'
p900
tp901
Rp902
sg44
I15
sg45
g7
(g11
S'\xac\n9\x0fK0,@'
p903
tp904
Rp905
sg49
I969729
sg50
I329078
sg51
I1321557
sg52
I1637034
ssS'MCDONALD REBECCA'
p906
(dp907
g3
I894
sg4
g5
sg6
g90
sg17
g5
sg18
I00
sg19
g5
sg20
S'rebecca.mcdonald@enron.com'
p908
sg22
g5
sg23
g90
sg27
g5
sg28
I720
sg29
g5
sg30
I13
sg31
g5
sg32
g5
sg33
g5
sg34
g90
sg38
I1691366
sg39
I54
sg40
g90
sg44
I1
sg45
g90
sg49
I934065
sg50
g5
sg51
g5
sg52
I757301
ssS'CUMBERLAND MICHAEL S'
p909
(dp910
g3
g5
sg4
g5
sg6
g7
(g11
S'/M\xce<\x17b)@'
p911
tp912
Rp913
sg17
I22344
sg18
I00
sg19
g5
sg20
g5
sg22
I275000
sg23
g7
(g11
S'G1^\x9eQA(@'
p914
tp915
Rp916
sg27
g5
sg28
g5
sg29
g5
sg30
g5
sg31
I713
sg32
g5
sg33
I325000
sg34
g7
(g11
S'\xff0\xef&p\xafb@'
p917
tp918
Rp919
sg38
I207940
sg39
g5
sg40
g7
(g11
S'S^\x14\x8b\x95H\x1a@'
p920
tp921
Rp922
sg44
g5
sg45
g7
(g11
S'\x94\xac\xee\x1f\\4+@'
p923
tp924
Rp925
sg49
I207940
sg50
I184899
sg51
I807956
sg52
g5
ssS'GAHN ROBERT S'
p926
(dp927
g3
g5
sg4
I73122
sg6
g7
(g11
S'5\x96*\xd3\xa8H*@'
p928
tp929
Rp930
sg17
I50080
sg18
I00
sg19
I-1042
sg20
g5
sg22
g5
sg23
g7
(g11
S'\xa2<P\x8f\xa2T(@'
p931
tp932
Rp933
sg27
g5
sg28
g5
sg29
g5
sg30
g5
sg31
I76547
sg32
g5
sg33
I509870
sg34
g7
(g11
S'\xaa\xc2\xbb\x086\xf9k@'
p934
tp935
Rp936
sg38
I318607
sg39
g5
sg40
g7
(g11
S'y\xeb*\xe3\xc8}&@'
p937
tp938
Rp939
sg44
g5
sg45
g7
(g11
S'c\xe3\x1d?\xeek+@'
p940
tp941
Rp942
sg49
I235370
sg50
I192008
sg51
I900585
sg52
I83237
ssS'MCCLELLAN GEORGE'
p943
(dp944
g3
I1744
sg4
g5
sg6
g7
(g11
S'\xeeH\x96\xee\x98k+@'
p945
tp946
Rp947
sg17
I228763
sg18
I00
sg19
I-125000
sg20
S'george.mcclellan@enron.com'
p948
sg22
g5
sg23
g7
(g11
S'\x82\x9c\xb9U\x85\xf6(@'
p949
tp950
Rp951
sg27
g5
sg28
I1469
sg29
g5
sg30
I49
sg31
I51587
sg32
g5
sg33
I900000
sg34
g7
(g11
S'<\tGL\xaf\xe4}@'
p952
tp953
Rp954
sg38
I947861
sg39
I52
sg40
g7
(g11
S'\xa6EQ\x16\xbc\xb3%@'
p955
tp956
Rp957
sg44
I0
sg45
g7
(g11
S'g1]\xa85/,@'
p958
tp959
Rp960
sg49
I441096
sg50
I263413
sg51
I1318763
sg52
I506765
ssS'HERMANN ROBERT J'
p961
(dp962
g3
g5
sg4
g5
sg6
g7
(g11
S'3IX\xb0\xec\xea*@'
p963
tp964
Rp965
sg17
I48357
sg18
I00
sg19
I-280000
sg20
S'robert.hermann@enron.com'
p966
sg22
I150000
sg23
g7
(g11
S'\n\xe3\xaa\x9c\x0f\xf5(@'
p967
tp968
Rp969
sg27
g5
sg28
g5
sg29
g5
sg30
g5
sg31
I416441
sg32
g5
sg33
I700000
sg34
g7
(g11
S'}\xb7\xdc\xdd\xf1|k@'
p970
tp971
Rp972
sg38
I668132
sg39
g5
sg40
g7
(g11
S'\xfd\xe6\xeaw\x06\xe1)@'
p973
tp974
Rp975
sg44
g5
sg45
g7
(g11
S'\xc0\x9b\xb0*\xdf&,@'
p976
tp977
Rp978
sg49
I480632
sg50
I262663
sg51
I1297461
sg52
I187500
ssS'SCRIMSHAW MATTHEW'
p979
(dp980
g3
g5
sg4
g5
sg6
g90
sg17
g5
sg18
I00
sg19
g5
sg20
S'matthew.scrimshaw@enron.com'
p981
sg22
g5
sg23
g90
sg27
g5
sg28
g5
sg29
g5
sg30
g5
sg31
g5
sg32
g5
sg33
g5
sg34
g90
sg38
I759557
sg39
g5
sg40
g90
sg44
g5
sg45
g90
sg49
g5
sg50
g5
sg51
g5
sg52
I759557
ssS'GATHMANN WILLIAM D'
p982
(dp983
g3
g5
sg4
g5
sg6
g90
sg17
g5
sg18
I00
sg19
g5
sg20
g5
sg22
g5
sg23
g90
sg27
I-72419
sg28
g5
sg29
g5
sg30
g5
sg31
g5
sg32
g5
sg33
g5
sg34
g90
sg38
I1945360
sg39
g5
sg40
g90
sg44
g5
sg45
g90
sg49
I264013
sg50
g5
sg51
g5
sg52
I1753766
ssS'HAEDICKE MARK E'
p984
(dp985
g3
I4009
sg4
I2157527
sg6
g7
(g11
S'\x06\xf5T\x97\x19\xe9+@'
p986
tp987
Rp988
sg17
I76169
sg18
I00
sg19
I-934484
sg20
S'mark.haedicke@enron.com'
p989
sg22
I983346
sg23
g7
(g11
S'6\xdaM\xdb)\xaa)@'
p990
tp991
Rp992
sg27
I-329825
sg28
I1847
sg29
g5
sg30
I1941
sg31
I52382
sg32
g5
sg33
I1150000
sg34
g7
(g11
S'\xf2\xd85z\xd3?q@'
p993
tp994
Rp995
sg38
I803094
sg39
I180
sg40
g7
(g11
S'\x8fV\x0c\x93\x90\xbb%@'
p996
tp997
Rp998
sg44
I61
sg45
g7
(g11
S'\xc8\xe6N\x90\xf5T.@'
p999
tp1000
Rp1001
sg49
I524169
sg50
I374125
sg51
I3859065
sg52
I608750
ssS'BOWEN JR RAYMOND M'
p1002
(dp1003
g3
I1858
sg4
g5
sg6
g7
(g11
S'c\xd1\x8e\x012;,@'
p1004
tp1005
Rp1006
sg17
I65907
sg18
I01
sg19
I-833
sg20
S'raymond.bowen@enron.com'
p1007
sg22
I974293
sg23
g7
(g11
S'\xfb\x80\xad\xd98\x13)@'
p1008
tp1009
Rp1010
sg27
g5
sg28
I1593
sg29
g5
sg30
I27
sg31
I1621
sg32
g5
sg33
I1350000
sg34
g7
(g11
S'\xad\xba\xee\xc9\x9b\x0bp@'
p1011
tp1012
Rp1013
sg38
I252055
sg39
I140
sg40
g7
(g11
S"\xeaX\xc0'\xcf\x90\x1d@"
p1014
tp1015
Rp1016
sg44
I15
sg45
g7
(g11
S'\xe5\x03\x81\x82I\x98-@'
p1017
tp1018
Rp1019
sg49
I252055
sg50
I278601
sg51
I2669589
sg52
g5
ssS'GILLIS JOHN'
p1020
(dp1021
g3
g5
sg4
g5
sg6
g90
sg17
g5
sg18
I00
sg19
g5
sg20
g5
sg22
g5
sg23
g90
sg27
g5
sg28
g5
sg29
g5
sg30
g5
sg31
g5
sg32
g5
sg33
g5
sg34
g90
sg38
I85641
sg39
g5
sg40
g90
sg44
g5
sg45
g90
sg49
I75838
sg50
g5
sg51
g5
sg52
I9803
ssS'FITZGERALD JAY L'
p1022
(dp1023
g3
I936
sg4
g5
sg6
g7
(g11
S'\xa3\xf4W\xb0\x08\x88)@'
p1024
tp1025
Rp1026
sg17
I23870
sg18
I00
sg19
g5
sg20
S'jay.fitzgerald@enron.com'
p1027
sg22
I556416
sg23
g7
(g11
S'\x90\x0e\xb2\x08Zg(@'
p1028
tp1029
Rp1030
sg27
g5
sg28
I723
sg29
g5
sg30
I16
sg31
I285414
sg32
g5
sg33
I350000
sg34
g7
(g11
S'\x99\x80"\xe2\x13Pc@'
p1031
tp1032
Rp1033
sg38
I1621236
sg39
I1
sg40
g7
(g11
S'\x98\xe2\x08\x15\x97\x1f)@'
p1034
tp1035
Rp1036
sg44
I8
sg45
g7
(g11
S'\x06C\x0e\x808S,@'
p1037
tp1038
Rp1039
sg49
I956775
sg50
I199157
sg51
I1414857
sg52
I664461
ssS'MORAN MICHAEL P'
p1040
(dp1041
g3
I672
sg4
g5
sg6
g90
sg17
g5
sg18
I00
sg19
g5
sg20
S'michael.moran@enron.com'
p1042
sg22
g5
sg23
g90
sg27
g5
sg28
I127
sg29
g5
sg30
I19
sg31
g5
sg32
g5
sg33
g5
sg34
g90
sg38
I221141
sg39
I0
sg40
g90
sg44
I0
sg45
g90
sg49
I161602
sg50
g5
sg51
g5
sg52
I59539
ssS'REDMOND BRIAN L'
p1043
(dp1044
g3
I1671
sg4
g5
sg6
g90
sg17
I14689
sg18
I00
sg19
g5
sg20
S'brian.redmond@enron.com'
p1045
sg22
g5
sg23
g7
(g11
S'+\x9c\xfe$0\xf6&@'
p1046
tp1047
Rp1048
sg27
g5
sg28
I1063
sg29
g5
sg30
I221
sg31
g5
sg32
g5
sg33
g5
sg34
g7
(g11
S'\xd6\xd4\x84\xa6\xf2L^@'
p1049
tp1050
Rp1051
sg38
I7890324
sg39
I204
sg40
g90
sg44
I49
sg45
g7
(g11
S"\x88\xe9\x19^~>'@"
p1052
tp1053
Rp1054
sg49
I381285
sg50
I96840
sg51
I111529
sg52
I7509039
ssS'BAZELIDES PHILIP J'
p1055
(dp1056
g3
g5
sg4
I684694
sg6
g90
sg17
g5
sg18
I00
sg19
g5
sg20
g5
sg22
I93750
sg23
g7
(g11
S'3\xc7\xbd\xf1\x96\x99&@'
p1057
tp1058
Rp1059
sg27
g5
sg28
g5
sg29
g5
sg30
g5
sg31
I874
sg32
g5
sg33
g5
sg34
g90
sg38
I1599641
sg39
g5
sg40
g7
(g11
S'|\xc0~%\xce\x18\x1b@'
p1060
tp1061
Rp1062
sg44
g5
sg45
g7
(g11
S'\xc5y\x0c\xf9fT+@'
p1063
tp1064
Rp1065
sg49
g5
sg50
I80818
sg51
I860136
sg52
I1599641
ssS'BELDEN TIMOTHY N'
p1066
(dp1067
g3
I7991
sg4
I2144013
sg6
g7
(g11
S'\x0f\xa4\xcc\xde\x8d\xf2.@'
p1068
tp1069
Rp1070
sg17
I17355
sg18
I01
sg19
I-2334434
sg20
S'tim.belden@enron.com'
p1071
sg22
g5
sg23
g7
(g11
S"\xb6\x10\xe3\x1e'\x8c(@"
p1072
tp1073
Rp1074
sg27
g5
sg28
I5521
sg29
g5
sg30
I484
sg31
I210698
sg32
g5
sg33
I5249999
sg34
g7
(g11
S'\x14Ul\xe0\xbfw`@'
p1075
tp1076
Rp1077
sg38
I1110705
sg39
I228
sg40
g7
(g11
S';\xd5\xab\xef0\x84(@'
p1078
tp1079
Rp1080
sg44
I108
sg45
g7
(g11
S'z\xf1\x89:\x86\n/@'
p1081
tp1082
Rp1083
sg49
I157569
sg50
I213999
sg51
I5501630
sg52
I953136
ssS'DURAN WILLIAM D'
p1084
(dp1085
g3
I904
sg4
g5
sg6
g7
(g11
S'\xd1\x95\xc3\xb5?\x0e+@'
p1086
tp1087
Rp1088
sg17
I25785
sg18
I00
sg19
g5
sg20
S'w.duran@enron.com'
p1089
sg22
I1105218
sg23
g7
(g11
S'\xa7\xabe\xd3-\x84(@'
p1090
tp1091
Rp1092
sg27
g5
sg28
I599
sg29
g5
sg30
I12
sg31
I1568
sg32
g5
sg33
I750000
sg34
g7
(g11
S')\x96v\xfb\x90\x12d@'
p1093
tp1094
Rp1095
sg38
I1640910
sg39
I106
sg40
g7
(g11
S'\xc3z\xd6W\xcan\x1d@'
p1096
tp1097
Rp1098
sg44
I3
sg45
g7
(g11
S'\x07\x82\xf3\xc4\xc4\x1b-@'
p1099
tp1100
Rp1101
sg49
I189041
sg50
I210692
sg51
I2093263
sg52
I1451869
ssS'THORN TERENCE H'
p1102
(dp1103
g3
I266
sg4
I16586
sg6
g90
sg17
I46145
sg18
I00
sg19
g5
sg20
S'terence.thorn@enron.com'
p1104
sg22
I200000
sg23
g7
(g11
S'F\x97j\x1b)\x9f(@'
p1105
tp1106
Rp1107
sg27
g5
sg28
I73
sg29
g5
sg30
I41
sg31
I426629
sg32
g5
sg33
g5
sg34
g7
(g11
S'\x10=\x86P\x1e\xdaj@'
p1108
tp1109
Rp1110
sg38
I4817796
sg39
I0
sg40
g7
(g11
S'c\xf47xf\xed)@'
p1111
tp1112
Rp1113
sg44
I0
sg45
g7
(g11
S'7\x8b\xa7\x83\x12r+@'
p1114
tp1115
Rp1116
sg49
I365320
sg50
I222093
sg51
I911453
sg52
I4452476
ssS'FASTOW ANDREW S'
p1117
(dp1118
g3
g5
sg4
g5
sg6
g7
(g11
S'"\xb1>O\xdf\',@'
p1119
tp1120
Rp1121
sg17
I55921
sg18
I01
sg19
I-1386055
sg20
S'andrew.fastow@enron.com'
p1122
sg22
I1736055
sg23
g7
(g11
S'\xaeo\x16e\x03\xfe)@'
p1123
tp1124
Rp1125
sg27
g5
sg28
g5
sg29
g5
sg30
g5
sg31
I277464
sg32
g5
sg33
I1300000
sg34
g7
(g11
S'd <xN\x8fm@'
p1126
tp1127
Rp1128
sg38
I1794412
sg39
g5
sg40
g7
(g11
S'd\xdf^^ \x11)@'
p1129
tp1130
Rp1131
sg44
g5
sg45
g7
(g11
S'1\xd4\x13\xd8\xe4f-@'
p1132
tp1133
Rp1134
sg49
I1794412
sg50
I440698
sg51
I2424083
sg52
g5
ssS'FOY JOE'
p1135
(dp1136
g3
I57
sg4
I181755
sg6
g90
sg17
g5
sg18
I00
sg19
g5
sg20
S'tracy.foy@enron.com'
p1137
sg22
g5
sg23
g90
sg27
g5
sg28
I2
sg29
g5
sg30
I13
sg31
g5
sg32
g5
sg33
g5
sg34
g90
sg38
I343434
sg39
I0
sg40
g90
sg44
I0
sg45
g7
(g11
S'\xd1g\xa8\xbe\x898(@'
p1138
tp1139
Rp1140
sg49
g5
sg50
g5
sg51
I181755
sg52
I343434
ssS'CALGER CHRISTOPHER F'
p1141
(dp1142
g3
I2598
sg4
g5
sg6
g7
(g11
S'\xef[\x86\x93\xca\x13,@'
p1143
tp1144
Rp1145
sg17
I35818
sg18
I01
sg19
I-262500
sg20
S'christopher.calger@enron.com'
p1146
sg22
I375304
sg23
g7
(g11
S'\xaa`\xf7\xdfC\xc7(@'
p1147
tp1148
Rp1149
sg27
g5
sg28
I2188
sg29
g5
sg30
I144
sg31
I486
sg32
g5
sg33
I1250000
sg34
g7
(g11
S"\x92'\xaceJ\xa8g@"
p1150
tp1151
Rp1152
sg38
I126027
sg39
I199
sg40
g7
(g11
S'p\x99nO\xc8\xc0\x18@'
p1153
tp1154
Rp1155
sg44
I25
sg45
g7
(g11
S'\xdf\x15nc\x9b\x9e,@'
p1156
tp1157
Rp1158
sg49
I126027
sg50
I240189
sg51
I1639297
sg52
g5
ssS'RICE KENNETH D'
p1159
(dp1160
g3
I905
sg4
g5
sg6
g7
(g11
S'\t\x8c\xa3\xa2\x10\xc0,@'
p1161
tp1162
Rp1163
sg17
I46950
sg18
I01
sg19
I-3504386
sg20
S'ken.rice@enron.com'
p1164
sg22
I1617011
sg23
g7
(g11
S'\x10\xf2\xdb\x84(\xe6)@'
p1165
tp1166
Rp1167
sg27
g5
sg28
I864
sg29
g5
sg30
I18
sg31
I174839
sg32
g5
sg33
I1750000
sg34
g7
(g11
S'\x83\x17_B\xd1\x15k@'
p1168
tp1169
Rp1170
sg38
I22542539
sg39
I42
sg40
g7
(g11
S'\xe9\xc3*<\xac$(@'
p1171
tp1172
Rp1173
sg44
I4
sg45
g7
(g11
S'*#B\x1e\xccC*@'
p1174
tp1175
Rp1176
sg49
I2748364
sg50
I420636
sg51
I505050
sg52
I19794175
ssS'KAMINSKI WINCENTY J'
p1177
(dp1178
g3
I4607
sg4
g5
sg6
g7
(g11
S'\xdd\xc0d\xdef\xcc)@'
p1179
tp1180
Rp1181
sg17
I83585
sg18
I00
sg19
g5
sg20
S'vince.kaminski@enron.com'
p1182
sg22
I323466
sg23
g7
(g11
S'\x08\xc8\xf1\xcd\xbf\x0c)@'
p1183
tp1184
Rp1185
sg27
g5
sg28
I583
sg29
g5
sg30
I14368
sg31
I4669
sg32
g5
sg33
I400000
sg34
g7
(g11
S'\xff=\x83\x88\xcc\x11r@'
p1186
tp1187
Rp1188
sg38
I976037
sg39
I41
sg40
g7
(g11
S'\xd6\x9a\r\x1a\xd8\xe5 @'
p1189
tp1190
Rp1191
sg44
I171
sg45
g7
(g11
S'\x9c\x94\x02~+\xcc+@'
p1192
tp1193
Rp1194
sg49
I126027
sg50
I275101
sg51
I1086821
sg52
I850010
ssS'COX DAVID'
p1195
(dp1196
g3
I102
sg4
g5
sg6
g7
(g11
S'\x92\xfeb\xe4J/+@'
p1197
tp1198
Rp1199
sg17
I27861
sg18
I00
sg19
I-41250
sg20
S'chip.cox@enron.com'
p1200
sg22
g5
sg23
g7
(g11
S'\xd0|:\xbc\xeeP)@'
p1201
tp1202
Rp1203
sg27
g5
sg28
I71
sg29
g5
sg30
I33
sg31
I494
sg32
g5
sg33
I800000
sg34
g7
(g11
S'\x13s\xb2\x9ci\xddd@'
p1204
tp1205
Rp1206
sg38
I495633
sg39
I0
sg40
g7
(g11
S'x\x80\x11\x97w\xd1\x18@'
p1207
tp1208
Rp1209
sg44
I4
sg45
g7
(g11
S'\x0e\xa4\xab6\xfd\xd2+@'
p1210
tp1211
Rp1212
sg49
I378082
sg50
I314288
sg51
I1101393
sg52
I117551
ssS'OVERDYKE JR JERE C'
p1213
(dp1214
g3
g5
sg4
g5
sg6
g90
sg17
I18834
sg18
I00
sg19
g5
sg20
S'jere.overdyke@enron.com'
p1215
sg22
I135836
sg23
g7
(g11
S'WN\x93b\x0c\xec&@'
p1216
tp1217
Rp1218
sg27
g5
sg28
g5
sg29
g5
sg30
g5
sg31
I176
sg32
g5
sg33
g5
sg34
g7
(g11
S"\x92v\x18\x86\xb3'a@"
p1219
tp1220
Rp1221
sg38
I7307594
sg39
g5
sg40
g7
(g11
S';jr\x98`\xb4\x14@'
p1222
tp1223
Rp1224
sg44
g5
sg45
g7
(g11
S'\x03\xbe\xca\x8dS\xdb(@'
p1225
tp1226
Rp1227
sg49
I2041016
sg50
I94941
sg51
I249787
sg52
I5266578
ssS'PEREIRA PAULO V. FERRAZ'
p1228
(dp1229
g3
g5
sg4
g5
sg6
g90
sg17
I27942
sg18
I00
sg19
I-101250
sg20
g5
sg22
g5
sg23
g90
sg27
g5
sg28
g5
sg29
g5
sg30
g5
sg31
g5
sg32
I101250
sg33
g5
sg34
g7
(g11
S'{\x13\x89\xd0+\xe5d@'
p1230
tp1231
Rp1232
sg38
g5
sg39
g5
sg40
g90
sg44
g5
sg45
g7
(g11
S'\xdc\x93]\x9a\xd5y$@'
p1233
tp1234
Rp1235
sg49
g5
sg50
g5
sg51
I27942
sg52
g5
ssS'STABLER FRANK'
p1236
(dp1237
g3
g5
sg4
g5
sg6
g7
(g11
S'\x1e6\xbc\xac\xa6>*@'
p1238
tp1239
Rp1240
sg17
I16514
sg18
I00
sg19
g5
sg20
S'frank.stabler@enron.com'
p1241
sg22
g5
sg23
g7
(g11
S'?\xcaDq\xcc\xc5(@'
p1242
tp1243
Rp1244
sg27
g5
sg28
g5
sg29
g5
sg30
g5
sg31
I356071
sg32
g5
sg33
I500000
sg34
g7
(g11
S'\xce}h\xa7W\x10`@'
p1245
tp1246
Rp1247
sg38
I511734
sg39
g5
sg40
g7
(g11
S'\xa9\x08\x19\xba\xd6\x90)@'
p1248
tp1249
Rp1250
sg44
g5
sg45
g7
(g11
S'b\xaf\x16\xb8\xef\xd7+@'
p1251
tp1252
Rp1253
sg49
I511734
sg50
I239502
sg51
I1112087
sg52
g5
ssS'SKILLING JEFFREY K'
p1254
(dp1255
g3
I3627
sg4
g5
sg6
g7
(g11
S'3\xcb5\x16\x99\x13/@'
p1256
tp1257
Rp1258
sg17
I29336
sg18
I01
sg19
g5
sg20
S'jeff.skilling@enron.com'
p1259
sg22
I1920000
sg23
g7
(g11
S'P3\xd0\xf9\x8d\xd7+@'
p1260
tp1261
Rp1262
sg27
g5
sg28
I2042
sg29
g5
sg30
I108
sg31
I22122
sg32
g5
sg33
I5600000
sg34
g7
(g11
S'\xee\xa9\xdf\x9f\xf9he@'
p1263
tp1264
Rp1265
sg38
I26093672
sg39
I88
sg40
g7
(g11
S'\xd3\xed\xe3/=\x02$@'
p1266
tp1267
Rp1268
sg44
I30
sg45
g7
(g11
S'\x92\xa4\xdf\x0c%\xf4/@'
p1269
tp1270
Rp1271
sg49
I6843672
sg50
I1111258
sg51
I8682716
sg52
I19250000
ssS'BLAKE JR. NORMAN P'
p1272
(dp1273
g3
g5
sg4
g5
sg6
g90
sg17
I1279
sg18
I00
sg19
I-113784
sg20
g5
sg22
g5
sg23
g90
sg27
g5
sg28
g5
sg29
g5
sg30
g5
sg31
g5
sg32
I113784
sg33
g5
sg34
g7
(g11
S'\xa8\xf4\x97\x9bw\xe3A@'
p1274
tp1275
Rp1276
sg38
g5
sg39
g5
sg40
g90
sg44
g5
sg45
g7
(g11
S'eCJ5 \x9f\x1c@'
p1277
tp1278
Rp1279
sg49
g5
sg50
g5
sg51
I1279
sg52
g5
ssS'SHERRICK JEFFREY B'
p1280
(dp1281
g3
I613
sg4
g5
sg6
g90
sg17
g5
sg18
I00
sg19
g5
sg20
S'jeffrey.sherrick@enron.com'
p1282
sg22
g5
sg23
g90
sg27
g5
sg28
I583
sg29
g5
sg30
I25
sg31
g5
sg32
g5
sg33
g5
sg34
g90
sg38
I1832468
sg39
I39
sg40
g90
sg44
I18
sg45
g90
sg49
I405999
sg50
g5
sg51
g5
sg52
I1426469
ssS'PRENTICE JAMES'
p1283
(dp1284
g3
g5
sg4
I564348
sg6
g90
sg17
g5
sg18
I00
sg19
g5
sg20
S'james.prentice@enron.com'
p1285
sg22
g5
sg23
g90
sg27
g5
sg28
g5
sg29
g5
sg30
g5
sg31
g5
sg32
g5
sg33
g5
sg34
g90
sg38
I1095040
sg39
g5
sg40
g90
sg44
g5
sg45
g7
(g11
S'\xbd\xfb4\xd8\xa2|*@'
p1286
tp1287
Rp1288
sg49
I208809
sg50
g5
sg51
I564348
sg52
I886231
ssS'GRAY RODNEY'
p1289
(dp1290
g3
g5
sg4
I93585
sg6
g90
sg17
g5
sg18
I00
sg19
g5
sg20
g5
sg22
I365625
sg23
g7
(g11
S'\x9d\x98\xf6wD\x98!@'
p1291
tp1292
Rp1293
sg27
g5
sg28
g5
sg29
g5
sg30
g5
sg31
I680833
sg32
g5
sg33
g5
sg34
g90
sg38
g5
sg39
g5
sg40
g7
(g11
S'\x90\x06b\xb4\xb5\xdc*@'
p1294
tp1295
Rp1296
sg44
g5
sg45
g7
(g11
S'}:\x9e>\x9c\xe7+@'
p1297
tp1298
Rp1299
sg49
g5
sg50
I6615
sg51
I1146658
sg52
g5
ssS'PICKERING MARK R'
p1300
(dp1301
g3
I898
sg4
g5
sg6
g7
(g11
S'\t\\\xd1\xe9\x1b9)@'
p1302
tp1303
Rp1304
sg17
I31653
sg18
I00
sg19
g5
sg20
S'mark.pickering@enron.com'
p1305
sg22
g5
sg23
g7
(g11
S'\xe1\x9c\xad6\xef\xc8*@'
p1306
tp1307
Rp1308
sg27
g5
sg28
I728
sg29
I400000
sg30
I67
sg31
g5
sg32
g5
sg33
I300000
sg34
g7
(g11
S'\xe8\xce\xda\x7fM=f@'
p1309
tp1310
Rp1311
sg38
I28798
sg39
I7
sg40
g90
sg44
I0
sg45
g7
(g11
S'<Z\xdc\xcb\xecH,@'
p1312
tp1313
Rp1314
sg49
g5
sg50
I655037
sg51
I1386690
sg52
I28798
ssS'NOLES JAMES L'
p1315
(dp1316
g3
g5
sg4
I774401
sg6
g90
sg17
g5
sg18
I00
sg19
g5
sg20
g5
sg22
g5
sg23
g90
sg27
I-94556
sg28
g5
sg29
g5
sg30
g5
sg31
g5
sg32
g5
sg33
g5
sg34
g90
sg38
I368705
sg39
g5
sg40
g90
sg44
g5
sg45
g7
(g11
S'\xd0*5[\xa4\x1e+@'
p1317
tp1318
Rp1319
sg49
I463261
sg50
g5
sg51
I774401
sg52
g5
ssS'KEAN STEVEN J'
p1320
(dp1321
g3
I12754
sg4
g5
sg6
g7
(g11
S'\xc8\xed\x1d\xbb\x8a\xa1+@'
p1322
tp1323
Rp1324
sg17
I41953
sg18
I00
sg19
g5
sg20
S'steven.kean@enron.com'
p1325
sg22
I300000
sg23
g7
(g11
S'D\xc05\x03\xed\xd1)@'
p1326
tp1327
Rp1328
sg27
g5
sg28
I3639
sg29
g5
sg30
I6759
sg31
I1231
sg32
g5
sg33
I1000000
sg34
g7
(g11
S'\xfcx"\xc9t\x9ai@'
p1329
tp1330
Rp1331
sg38
I6153642
sg39
I140
sg40
g7
(g11
S'3O\xc9\x060w\x1c@'
p1332
tp1333
Rp1334
sg44
I387
sg45
g7
(g11
S'\xc8\xd3\x1e\xfbV\xbf,@'
p1335
tp1336
Rp1337
sg49
I4131594
sg50
I404338
sg51
I1747522
sg52
I2022048
ssS'FOWLER PEGGY'
p1338
(dp1339
g3
I517
sg4
g5
sg6
g90
sg17
g5
sg18
I00
sg19
g5
sg20
S'kulvinder.fowler@enron.com'
p1340
sg22
g5
sg23
g90
sg27
g5
sg28
I10
sg29
g5
sg30
I36
sg31
g5
sg32
g5
sg33
g5
sg34
g90
sg38
I1884748
sg39
I0
sg40
g90
sg44
I0
sg45
g90
sg49
I560170
sg50
g5
sg51
g5
sg52
I1324578
ssS'WASAFF GEORGE'
p1341
(dp1342
g3
I400
sg4
I831299
sg6
g7
(g11
S'/M\xce<\x17b)@'
p1343
tp1344
Rp1345
sg17
g5
sg18
I00
sg19
I-583325
sg20
S'george.wasaff@enron.com'
p1346
sg22
I200000
sg23
g7
(g11
S'8\xafT\xf4\xd5\xef(@'
p1347
tp1348
Rp1349
sg27
g5
sg28
I337
sg29
g5
sg30
I30
sg31
I1425
sg32
g5
sg33
I325000
sg34
g90
sg38
I2056427
sg39
I22
sg40
g7
(g11
S'\xe3\xb6\x10\x83\xee\x0c\x1d@'
p1350
tp1351
Rp1352
sg44
I7
sg45
g7
(g11
S'&]\x18G\xdb\xb2+@'
p1353
tp1354
Rp1355
sg49
I388167
sg50
I259996
sg51
I1034395
sg52
I1668260
ssS'WHITE JR THOMAS E'
p1356
(dp1357
g3
g5
sg4
g5
sg6
g7
(g11
S'i\x00\xef\xe3\xb4\x08*@'
p1358
tp1359
Rp1360
sg17
I81353
sg18
I00
sg19
g5
sg20
S'thomas.white@enron.com'
p1361
sg22
g5
sg23
g7
(g11
S'm\xebn95V)@'
p1362
tp1363
Rp1364
sg27
g5
sg28
g5
sg29
g5
sg30
g5
sg31
I1085463
sg32
g5
sg33
I450000
sg34
g7
(g11
S'\x8bP(\x9f\x9e\xd3q@'
p1365
tp1366
Rp1367
sg38
I15144123
sg39
g5
sg40
g7
(g11
S'\x03\x92*~\x87\xcb+@'
p1368
tp1369
Rp1370
sg44
g5
sg45
g7
(g11
S'\x1c\x9e]\xe5X\xf3,@'
p1371
tp1372
Rp1373
sg49
I13847074
sg50
I317543
sg51
I1934359
sg52
I1297049
ssS'CHRISTODOULOU DIOMEDES'
p1374
(dp1375
g3
g5
sg4
g5
sg6
g90
sg17
g5
sg18
I00
sg19
g5
sg20
S'diomedes.christodoulou@enron.com'
p1376
sg22
g5
sg23
g90
sg27
g5
sg28
g5
sg29
g5
sg30
g5
sg31
g5
sg32
g5
sg33
g5
sg34
g90
sg38
I6077885
sg39
g5
sg40
g90
sg44
g5
sg45
g90
sg49
I950730
sg50
g5
sg51
g5
sg52
I5127155
ssS'ALLEN PHILLIP K'
p1377
(dp1378
g3
I2902
sg4
I2869717
sg6
g7
(g11
S"\xe4\xc6'\x82?}.@"
p1379
tp1380
Rp1381
sg17
I13868
sg18
I00
sg19
I-3081055
sg20
S'phillip.allen@enron.com'
p1382
sg22
I304805
sg23
g7
(g11
S'&k\xbc\xa8~n(@'
p1383
tp1384
Rp1385
sg27
I-126027
sg28
I1407
sg29
g5
sg30
I2195
sg31
I152
sg32
g5
sg33
I4175000
sg34
g7
(g11
S'{T\xb7\xea\x11q]@'
p1386
tp1387
Rp1388
sg38
I1729541
sg39
I47
sg40
g7
(g11
S'B\xc1S\x1e+\x1f\x14@'
p1389
tp1390
Rp1391
sg44
I65
sg45
g7
(g11
S'\x1c^f%\xdb\xa1.@'
p1392
tp1393
Rp1394
sg49
I126027
sg50
I201955
sg51
I4484442
sg52
I1729541
ssS'SHARP VICTORIA T'
p1395
(dp1396
g3
I3136
sg4
I187469
sg6
g7
(g11
S'\x10z\xd4\xe1\xff\x9b*@'
p1397
tp1398
Rp1399
sg17
I116337
sg18
I00
sg19
g5
sg20
S'vicki.sharp@enron.com'
p1400
sg22
I422158
sg23
g7
(g11
S'\xb5\x7f-\xa1\xf3\xd7(@'
p1401
tp1402
Rp1403
sg27
g5
sg28
I2477
sg29
g5
sg30
I136
sg31
I2401
sg32
g5
sg33
I600000
sg34
g7
(g11
S'\xc7\xad\xd8JVQu@'
p1404
tp1405
Rp1406
sg38
I494136
sg39
I24
sg40
g7
(g11
S'3\'\xc2\xd6\xdf"\x1f@'
p1407
tp1408
Rp1409
sg44
I6
sg45
g7
(g11
S'\\ K\x99\x9c\x8a,@'
p1410
tp1411
Rp1412
sg49
I213063
sg50
I248146
sg51
I1576511
sg52
I281073
ssS'JAEDICKE ROBERT'
p1413
(dp1414
g3
g5
sg4
g5
sg6
g90
sg17
g5
sg18
I00
sg19
I-25000
sg20
g5
sg22
g5
sg23
g90
sg27
I-44093
sg28
g5
sg29
g5
sg30
g5
sg31
g5
sg32
I108750
sg33
g5
sg34
g90
sg38
I431750
sg39
g5
sg40
g90
sg44
g5
sg45
g7
(g11
S'\xfb\xc3\xc4\xc5\xd5\xab&@'
p1415
tp1416
Rp1417
sg49
I44093
sg50
g5
sg51
I83750
sg52
I431750
ssS'WINOKUR JR. HERBERT S'
p1418
(dp1419
g3
g5
sg4
g5
sg6
g90
sg17
I1413
sg18
I00
sg19
I-25000
sg20
g5
sg22
g5
sg23
g90
sg27
g5
sg28
g5
sg29
g5
sg30
g5
sg31
g5
sg32
I108579
sg33
g5
sg34
g7
(g11
S'\xfa+\xd1_5\xcdB@'
p1420
tp1421
Rp1422
sg38
g5
sg39
g5
sg40
g90
sg44
g5
sg45
g7
(g11
S'\x8f\x97\xa2;_\xb3&@'
p1423
tp1424
Rp1425
sg49
g5
sg50
g5
sg51
I84992
sg52
g5
ssS'BROWN MICHAEL'
p1426
(dp1427
g3
I1486
sg4
g5
sg6
g90
sg17
I49288
sg18
I00
sg19
g5
sg20
S'michael.brown@enron.com'
p1428
sg22
g5
sg23
g90
sg27
g5
sg28
I761
sg29
g5
sg30
I41
sg31
g5
sg32
g5
sg33
g5
sg34
g7
(g11
S'\xfaD\xfa?\\\xc0k@'
p1429
tp1430
Rp1431
sg38
g5
sg39
I13
sg40
g90
sg44
I1
sg45
g7
(g11
S'\xa8\xcfojg\x9c%@'
p1432
tp1433
Rp1434
sg49
g5
sg50
g5
sg51
I49288
sg52
g5
ssS'BADUM JAMES P'
p1435
(dp1436
g3
g5
sg4
I178980
sg6
g90
sg17
I3486
sg18
I00
sg19
g5
sg20
g5
sg22
g5
sg23
g90
sg27
g5
sg28
g5
sg29
g5
sg30
g5
sg31
g5
sg32
g5
sg33
g5
sg34
g7
(g11
S'\xe1h\xbfs\x81\x86M@'
p1437
tp1438
Rp1439
sg38
I257817
sg39
g5
sg40
g90
sg44
g5
sg45
g7
(g11
S'\x80\xc5^y\x89:(@'
p1440
tp1441
Rp1442
sg49
g5
sg50
g5
sg51
I182466
sg52
I257817
ssS'HUGHES JAMES A'
p1443
(dp1444
g3
I719
sg4
g5
sg6
g90
sg17
g5
sg18
I00
sg19
g5
sg20
S'james.hughes@enron.com'
p1445
sg22
g5
sg23
g90
sg27
g5
sg28
I589
sg29
g5
sg30
I34
sg31
g5
sg32
g5
sg33
g5
sg34
g90
sg38
I1118394
sg39
I35
sg40
g90
sg44
I5
sg45
g90
sg49
I363428
sg50
g5
sg51
g5
sg52
I754966
ssS'REYNOLDS LAWRENCE'
p1446
(dp1447
g3
g5
sg4
I51365
sg6
g7
(g11
S"\xf6\x94-z\x9f\x06'@"
p1448
tp1449
Rp1450
sg17
I8409
sg18
I00
sg19
I-200000
sg20
g5
sg22
I156250
sg23
g7
(g11
S'\xaf \x81\xf0\xcc|&@'
p1451
tp1452
Rp1453
sg27
I-140264
sg28
g5
sg29
g5
sg30
g5
sg31
I202052
sg32
g5
sg33
I100000
sg34
g7
(g11
S'\xc3\xe2U\xf5/\xedV@'
p1454
tp1455
Rp1456
sg38
I4221891
sg39
g5
sg40
g7
(g11
S'5\x9a\x00\xf3\xbcn(@'
p1457
tp1458
Rp1459
sg44
g5
sg45
g7
(g11
S"\xd1\x00i'H\xc5)@"
p1460
tp1461
Rp1462
sg49
I201483
sg50
I76399
sg51
I394475
sg52
I4160672
ssS'DIMICHELE RICHARD G'
p1463
(dp1464
g3
g5
sg4
g5
sg6
g7
(g11
S'\xc8\xed\x1d\xbb\x8a\xa1+@'
p1465
tp1466
Rp1467
sg17
I35812
sg18
I00
sg19
g5
sg20
S'richard.dimichele@enron.com'
p1468
sg22
I694862
sg23
g7
(g11
S'n\x06"\xf9M\xf5(@'
p1469
tp1470
Rp1471
sg27
g5
sg28
g5
sg29
g5
sg30
g5
sg31
I374689
sg32
g5
sg33
I1000000
sg34
g7
(g11
S'\xc4\xe5\xb8\x89\xc8\xa7g@'
p1472
tp1473
Rp1474
sg38
I8317782
sg39
g5
sg40
g7
(g11
S'dhI\xf3\xee\xaa)@'
p1475
tp1476
Rp1477
sg44
g5
sg45
g7
(g11
S'\xf6\n\xe3\x1f\xf1Z-@'
p1478
tp1479
Rp1480
sg49
I126027
sg50
I262788
sg51
I2368151
sg52
I8191755
ssS'BHATNAGAR SANJAY'
p1481
(dp1482
g3
I523
sg4
g5
sg6
g90
sg17
g5
sg18
I00
sg19
g5
sg20
S'sanjay.bhatnagar@enron.com'
p1483
sg22
g5
sg23
g90
sg27
I15456290
sg28
I463
sg29
g5
sg30
I29
sg31
I137864
sg32
I137864
sg33
g5
sg34
g90
sS'total_stock_value'
p1484
S'NaN'
p1485
sg39
I0
sg40
g7
(g11
S"\x7f\xdds\x02\x06\xab'@"
p1486
tp1487
Rp1488
sg44
I1
sg45
g7
(g11
S'\x13|x\xed\xb3\x8d0@'
p1489
tp1490
Rp1491
sg49
I-2604490
sg50
g5
sg51
I15456290
sg52
I2604490
ssS'CARTER REBECCA C'
p1492
(dp1493
g3
I312
sg4
g5
sg6
g7
(g11
S'\t\\\xd1\xe9\x1b9)@'
p1494
tp1495
Rp1496
sg17
g5
sg18
I00
sg19
I-159792
sg20
S'rebecca.carter@enron.com'
p1497
sg22
I75000
sg23
g7
(g11
S'8\x11\xc1\xc3d\xf3(@'
p1498
tp1499
Rp1500
sg27
I-307301
sg28
I196
sg29
g5
sg30
I15
sg31
I540
sg32
g5
sg33
I300000
sg34
g90
sg38
g5
sg39
I29
sg40
g7
(g11
S'k\xa5z\x1av,\x19@'
p1501
tp1502
Rp1503
sg44
I7
sg45
g7
(g11
S"1\xd3(\x89#'*@"
p1504
tp1505
Rp1506
sg49
I307301
sg50
I261809
sg51
I477557
sg52
g5
ssS'BUCHANAN HAROLD G'
p1507
(dp1508
g3
I1088
sg4
g5
sg6
g7
(g11
S'\x1e6\xbc\xac\xa6>*@'
p1509
tp1510
Rp1511
sg17
I600
sg18
I00
sg19
g5
sg20
S'john.buchanan@enron.com'
p1512
sg22
I304805
sg23
g7
(g11
S'\x17\xd4Uy\xaf\xd7(@'
p1513
tp1514
Rp1515
sg27
g5
sg28
I23
sg29
g5
sg30
I125
sg31
I1215
sg32
g5
sg33
I500000
sg34
g7
(g11
S'@1\xf5\xc9\xea\x838@'
p1516
tp1517
Rp1518
sg38
I1014505
sg39
I0
sg40
g7
(g11
S'\n\x05>B\xcdi\x1c@'
p1519
tp1520
Rp1521
sg44
I0
sg45
g7
(g11
S'LH\xf6o\xc7\xbc+@'
p1522
tp1523
Rp1524
sg49
I189041
sg50
I248017
sg51
I1054637
sg52
I825464
ssS'YEAP SOON'
p1525
(dp1526
g3
g5
sg4
g5
sg6
g90
sg17
I55097
sg18
I00
sg19
g5
sg20
g5
sg22
g5
sg23
g90
sg27
g5
sg28
g5
sg29
g5
sg30
g5
sg31
g5
sg32
g5
sg33
g5
sg34
g7
(g11
S'Zx\x96$YWm@'
p1527
tp1528
Rp1529
sg38
I192758
sg39
g5
sg40
g90
sg44
g5
sg45
g7
(g11
S'\xbf\xbeT1r\xd5%@'
p1530
tp1531
Rp1532
sg49
g5
sg50
g5
sg51
I55097
sg52
I192758
ssS'MURRAY JULIA H'
p1533
(dp1534
g3
I2192
sg4
g5
sg6
g7
(g11
S'\xdd\xc0d\xdef\xcc)@'
p1535
tp1536
Rp1537
sg17
I57580
sg18
I00
sg19
g5
sg20
S'julia.murray@enron.com'
p1538
sg22
I125000
sg23
g7
(g11
S'k\xa0\x84\xb4y\xaf(@'
p1539
tp1540
Rp1541
sg27
g5
sg28
I395
sg29
g5
sg30
I45
sg31
I330
sg32
g5
sg33
I400000
sg34
g7
(g11
S'\x8b\xf6\xe2\xb4\xbb\xfem@'
p1542
tp1543
Rp1544
sg38
I597461
sg39
I11
sg40
g7
(g11
S'\x80\x0f\xf7\x84^5\x17@'
p1545
tp1546
Rp1547
sg44
I2
sg45
g7
(g11
S'![\xbf\xd7\t7+@'
p1548
tp1549
Rp1550
sg49
I196983
sg50
I229284
sg51
I812194
sg52
I400478
ssS'GARLAND C KEVIN'
p1551
(dp1552
g3
I209
sg4
g5
sg6
g7
(g11
S'Ds\xab\x12UN+@'
p1553
tp1554
Rp1555
sg17
I48405
sg18
I00
sg19
g5
sg20
S'kevin.garland@enron.com'
p1556
sg22
I375304
sg23
g7
(g11
S'\x19r\xe0\xadb\xb5(@'
p1557
tp1558
Rp1559
sg27
g5
sg28
I178
sg29
g5
sg30
I44
sg31
I60814
sg32
g5
sg33
I850000
sg34
g7
(g11
S'>\x1b\xa4\xb4o\x80k@'
p1560
tp1561
Rp1562
sg38
I896153
sg39
I10
sg40
g7
(g11
S'<\xf2?\xa4\xfb\x07&@'
p1563
tp1564
Rp1565
sg44
I27
sg45
g7
(g11
S'\xc9E2\x08W\x87,@'
p1566
tp1567
Rp1568
sg49
I259907
sg50
I231946
sg51
I1566469
sg52
I636246
ssS'DODSON KEITH'
p1569
(dp1570
g3
I176
sg4
g5
sg6
g7
(g11
S'\xed\x19\xd4\xf0\x01P&@'
p1571
tp1572
Rp1573
sg17
I28164
sg18
I00
sg19
g5
sg20
S'keith.dodson@enron.com'
p1574
sg22
g5
sg23
g7
(g11
S'U97?\xa4\x9c(@'
p1575
tp1576
Rp1577
sg27
g5
sg28
I114
sg29
g5
sg30
I14
sg31
I774
sg32
g5
sg33
I70000
sg34
g7
(g11
S'>\xd3q\xc5`\xfad@'
p1578
tp1579
Rp1580
sg38
g5
sg39
I10
sg40
g7
(g11
S'G\\? \x88\x9c\x1a@'
p1581
tp1582
Rp1583
sg44
I3
sg45
g7
(g11
S'\xc7#\xf9Q\x0fZ)@'
p1584
tp1585
Rp1586
sg49
g5
sg50
I221003
sg51
I319941
sg52
g5
ssS'YEAGER F SCOTT'
p1587
(dp1588
g3
g5
sg4
g5
sg6
g90
sg17
I53947
sg18
I01
sg19
g5
sg20
S'scott.yeager@enron.com'
p1589
sg22
g5
sg23
g7
(g11
S"\xf4\xecJM!\xf2'@"
p1590
tp1591
Rp1592
sg27
g5
sg28
g5
sg29
g5
sg30
g5
sg31
I147950
sg32
g5
sg33
g5
sg34
g7
(g11
S'\xd9\xfb_\xfb\x8b\x08m@'
p1593
tp1594
Rp1595
sg38
I11884758
sg39
g5
sg40
g7
(g11
S'\xfe>"\x81,\xcf\'@'
p1596
tp1597
Rp1598
sg44
g5
sg45
g7
(g11
S'\xb3\xb8\xe3\xa2\xe2\x96)@'
p1599
tp1600
Rp1601
sg49
I3576206
sg50
I158403
sg51
I360300
sg52
I8308552
ssS'HIRKO JOSEPH'
p1602
(dp1603
g3
g5
sg4
I10259
sg6
g90
sg17
I77978
sg18
I01
sg19
g5
sg20
S'joe.hirko@enron.com'
p1604
sg22
g5
sg23
g90
sg27
g5
sg28
g5
sg29
g5
sg30
g5
sg31
I2856
sg32
g5
sg33
g5
sg34
g7
(g11
S'\xe3\xc9i\x8a\xf4sq@'
p1605
tp1606
Rp1607
sg38
I30766064
sg39
g5
sg40
g7
(g11
S'\x87k6\x10\x82\xd4\x1f@'
p1608
tp1609
Rp1610
sg44
g5
sg45
g7
(g11
S'\x8d9op\xdd\xd6&@'
p1611
tp1612
Rp1613
sg49
g5
sg50
g5
sg51
I91093
sg52
I30766064
ssS'DIETRICH JANET R'
p1614
(dp1615
g3
I2572
sg4
g5
sg6
g7
(g11
S'\x10z\xd4\xe1\xff\x9b*@'
p1616
tp1617
Rp1618
sg17
I3475
sg18
I00
sg19
g5
sg20
S'janet.dietrich@enron.com'
p1619
sg22
I556416
sg23
g7
(g11
S'QE\x1b\xb1\xf7\xdb(@'
p1620
tp1621
Rp1622
sg27
g5
sg28
I1902
sg29
g5
sg30
I63
sg31
I473
sg32
g5
sg33
I600000
sg34
g7
(g11
S'd\x0f\xc7\x06\x93zM@'
p1623
tp1624
Rp1625
sg38
I1865087
sg39
I305
sg40
g7
(g11
S't9:\x88\x13\xa5\x18@'
p1626
tp1627
Rp1628
sg44
I14
sg45
g7
(g11
S'\xc0\x16\xb9\xe6\xa0Q,@'
p1629
tp1630
Rp1631
sg49
I315068
sg50
I250100
sg51
I1410464
sg52
I1550019
ssS'DERRICK JR. JAMES V'
p1632
(dp1633
g3
I2181
sg4
g5
sg6
g7
(g11
S'\x92\xfeb\xe4J/+@'
p1634
tp1635
Rp1636
sg17
I51124
sg18
I00
sg19
I-1284000
sg20
S'james.derrick@enron.com'
p1637
sg22
I484000
sg23
g7
(g11
S' \xba\xf4\xb2\xc86*@'
p1638
tp1639
Rp1640
sg27
I-1787380
sg28
I1401
sg29
g5
sg30
I909
sg31
I7482
sg32
g5
sg33
I800000
sg34
g7
(g11
S'\xed\xa6\x9f\xdbwCl@'
p1641
tp1642
Rp1643
sg38
I8831913
sg39
I64
sg40
g7
(g11
S'[H!<=\xd7!@'
p1644
tp1645
Rp1646
sg44
I20
sg45
g7
(g11
S'\xf3`\xf7\xf5\\p*@'
p1647
tp1648
Rp1649
sg49
I1787380
sg50
I492375
sg51
I550981
sg52
I8831913
ssS'FREVERT MARK A'
p1650
(dp1651
g3
I3275
sg4
I6426990
sg6
g7
(g11
S'\x9a\x9aF\xdan\x04-@'
p1652
tp1653
Rp1654
sg17
I86987
sg18
I00
sg19
I-3367011
sg20
S'mark.frevert@enron.com'
p1655
sg22
I1617011
sg23
g7
(g11
S';\xcc\x8bv\xd3\xbf+@'
p1656
tp1657
Rp1658
sg27
g5
sg28
I2979
sg29
I2000000
sg30
I21
sg31
I7427621
sg32
g5
sg33
I2000000
sg34
g7
(g11
S'Eb\xda\x1a\xffnr@'
p1659
tp1660
Rp1661
sg38
I14622185
sg39
I242
sg40
g7
(g11
S'1}\xab\xed4\xa4/@'
p1662
tp1663
Rp1664
sg44
I6
sg45
g7
(g11
S'}\xa0\xa9"\xd9\xa90@'
p1665
tp1666
Rp1667
sg49
I4188667
sg50
I1060932
sg51
I17252530
sg52
I10433518
ssS'PAI LOU L'
p1668
(dp1669
g3
g5
sg4
g5
sg6
g7
(g11
S'\xc8\xed\x1d\xbb\x8a\xa1+@'
p1670
tp1671
Rp1672
sg17
I32047
sg18
I00
sg19
g5
sg20
S'lou.pai@enron.com'
p1673
sg22
g5
sg23
g7
(g11
S'h\x8c\xf3\xcd\x87\xf3(@'
p1674
tp1675
Rp1676
sg27
g5
sg28
g5
sg29
g5
sg30
g5
sg31
I1829457
sg32
g5
sg33
I1000000
sg34
g7
(g11
S'C\xa6\x86+\xa0`f@'
p1677
tp1678
Rp1679
sg38
I23817930
sg39
g5
sg40
g7
(g11
S'z\xa3 \xad\xcc\xd6,@'
p1680
tp1681
Rp1682
sg44
g5
sg45
g7
(g11
S'Z\xc4R\xc6\xaa\xe8-@'
p1683
tp1684
Rp1685
sg49
I8453763
sg50
I261879
sg51
I3123383
sg52
I15364167
ssS'BAY FRANKLIN R'
p1686
(dp1687
g3
g5
sg4
I260455
sg6
g7
(g11
S'\xdd\xc0d\xdef\xcc)@'
p1688
tp1689
Rp1690
sg17
I129142
sg18
I00
sg19
I-201641
sg20
S'frank.bay@enron.com'
p1691
sg22
g5
sg23
g7
(g11
S'r\x8a\xc3\xe5(\xc6(@'
p1692
tp1693
Rp1694
sg27
I-82782
sg28
g5
sg29
g5
sg30
g5
sg31
I69
sg32
g5
sg33
I400000
sg34
g7
(g11
S'\xa8\xc1\xbf\xe1\xd5uv@'
p1695
tp1696
Rp1697
sg38
I63014
sg39
g5
sg40
g7
(g11
S'!Ag\x89u\xfe\x10@'
p1698
tp1699
Rp1700
sg44
g5
sg45
g7
(g11
S'=\xad\x17\xfa\xb7@+@'
p1701
tp1702
Rp1703
sg49
I145796
sg50
I239671
sg51
I827696
sg52
g5
ssS'HAYSLETT RODERICK J'
p1704
(dp1705
g3
I2649
sg4
g5
sg6
g90
sg17
g5
sg18
I00
sg19
g5
sg20
S'rod.hayslett@enron.com'
p1706
sg22
g5
sg23
g90
sg27
g5
sg28
I571
sg29
g5
sg30
I1061
sg31
g5
sg32
g5
sg33
g5
sg34
g90
sg38
I346663
sg39
I35
sg40
g90
sg44
I38
sg45
g90
sg49
I346663
sg50
g5
sg51
g5
sg52
g5
ssS'FUGH JOHN L'
p1707
(dp1708
g3
g5
sg4
I50591
sg6
g90
sg17
g5
sg18
I00
sg19
g5
sg20
g5
sg22
g5
sg23
g90
sg27
g5
sg28
g5
sg29
g5
sg30
g5
sg31
g5
sg32
g5
sg33
g5
sg34
g90
sg38
I176378
sg39
g5
sg40
g90
sg44
g5
sg45
g7
(g11
S'Pu\xe1X\xc3\xa9%@'
p1709
tp1710
Rp1711
sg49
g5
sg50
g5
sg51
I50591
sg52
I176378
ssS'FALLON JAMES B'
p1712
(dp1713
g3
I1755
sg4
g5
sg6
g7
(g11
S'\xc8\x06\n\xb6\xaev-@'
p1714
tp1715
Rp1716
sg17
I95924
sg18
I00
sg19
g5
sg20
S'jim.fallon@enron.com'
p1717
sg22
I374347
sg23
g7
(g11
S'\xf2\x91\x01\xb1\xe1@)@'
p1718
tp1719
Rp1720
sg27
g5
sg28
I1604
sg29
g5
sg30
I75
sg31
I401481
sg32
g5
sg33
I2500000
sg34
g7
(g11
S'\x83\x82\x1aX{[s@'
p1721
tp1722
Rp1723
sg38
I2332399
sg39
I42
sg40
g7
(g11
S'L\xb4\xf1CK\xce)@'
p1724
tp1725
Rp1726
sg44
I37
sg45
g7
(g11
S'\x9d\x02|\xa0\x1f<.@'
p1727
tp1728
Rp1729
sg49
I1392142
sg50
I304588
sg51
I3676340
sg52
I940257
ssS'KOENIG MARK E'
p1730
(dp1731
g3
I2374
sg4
g5
sg6
g7
(g11
S'3IX\xb0\xec\xea*@'
p1732
tp1733
Rp1734
sg17
I127017
sg18
I01
sg19
g5
sg20
S'mark.koenig@enron.com'
p1735
sg22
I300000
sg23
g7
(g11
S'\r\x82\xe4P\xcfI)@'
p1736
tp1737
Rp1738
sg27
g5
sg28
I2271
sg29
g5
sg30
I61
sg31
I150458
sg32
g5
sg33
I700000
sg34
g7
(g11
S'\xc7\xc4\x04dUFv@'
p1739
tp1740
Rp1741
sg38
I1920055
sg39
I53
sg40
g7
(g11
S"\x88\x00\xd2\xc1\xc7\xd7'@"
p1742
tp1743
Rp1744
sg44
I15
sg45
g7
(g11
S'S\x16t\x89$\x8e,@'
p1745
tp1746
Rp1747
sg49
I1248318
sg50
I309946
sg51
I1587421
sg52
I671737
ssS'SAVAGE FRANK'
p1748
(dp1749
g3
g5
sg4
g5
sg6
g90
sg17
g5
sg18
I00
sg19
I-121284
sg20
g5
sg22
g5
sg23
g90
sg27
g5
sg28
g5
sg29
g5
sg30
g5
sg31
g5
sg32
I125034
sg33
g5
sg34
g90
sg38
g5
sg39
g5
sg40
g90
sg44
g5
sg45
g7
(g11
S'\xbe>)^\xc8u @'
p1750
tp1751
Rp1752
sg49
g5
sg50
g5
sg51
I3750
sg52
g5
ssS'IZZO LAWRENCE L'
p1753
(dp1754
g3
I496
sg4
g5
sg6
g90
sg17
I28093
sg18
I00
sg19
g5
sg20
S'larry.izzo@enron.com'
p1755
sg22
I312500
sg23
g7
(g11
S'\xfd~\xf9d\x11\xb5&@'
p1756
tp1757
Rp1758
sg27
g5
sg28
I437
sg29
g5
sg30
I19
sg31
I1553729
sg32
g5
sg33
g5
sg34
g7
(g11
S'\xe2\x87k\xd1\x9a\xf3d@'
p1759
tp1760
Rp1761
sg38
I5819980
sg39
I28
sg40
g7
(g11
S'6\xe8\xf4\x96(\x83,@'
p1762
tp1763
Rp1764
sg44
I5
sg45
g7
(g11
S'\xe8\xef\xed\xda.\xff,@'
p1765
tp1766
Rp1767
sg49
I3654808
sg50
I85274
sg51
I1979596
sg52
I2165172
ssS'TILNEY ELIZABETH A'
p1768
(dp1769
g3
I460
sg4
g5
sg6
g7
(g11
S'\t\\\xd1\xe9\x1b9)@'
p1770
tp1771
Rp1772
sg17
g5
sg18
I00
sg19
I-575000
sg20
S'elizabeth.tilney@enron.com'
p1773
sg22
I275000
sg23
g7
(g11
S'\xbc^\x9c%H\xd6(@'
p1774
tp1775
Rp1776
sg27
g5
sg28
I379
sg29
g5
sg30
I19
sg31
I152055
sg32
g5
sg33
I300000
sg34
g90
sg38
I1168042
sg39
I10
sg40
g7
(g11
S"\x7f\x01\xfa\xa5/\xdd'@"
p1777
tp1778
Rp1779
sg44
I11
sg45
g7
(g11
S'\xc8\x8b\x02%\xa0\xcb)@'
p1780
tp1781
Rp1782
sg49
I576792
sg50
I247338
sg51
I399393
sg52
I591250
ssS'MARTIN AMANDA K'
p1783
(dp1784
g3
I1522
sg4
I85430
sg6
g90
sg17
I8211
sg18
I00
sg19
g5
sg20
S'a..martin@enron.com'
p1785
sg22
I5145434
sg23
g7
(g11
S'7\xbe4\xcfH\x87)@'
p1786
tp1787
Rp1788
sg27
g5
sg28
I477
sg29
g5
sg30
I230
sg31
I2818454
sg32
g5
sg33
g5
sg34
g7
(g11
S'\x81\xc8\x7f}\xaf\xa7V@'
p1789
tp1790
Rp1791
sg38
I2070306
sg39
I8
sg40
g7
(g11
S'\x15\x99I\xf2\x11\xb4-@'
p1792
tp1793
Rp1794
sg44
I0
sg45
g7
(g11
S'-c\xd7\xa5\x9f\xe3/@'
p1795
tp1796
Rp1797
sg49
g5
sg50
I349487
sg51
I8407016
sg52
I2070306
ssS'BUY RICHARD B'
p1798
(dp1799
g3
I3523
sg4
I649584
sg6
g7
(g11
S'\xeeH\x96\xee\x98k+@'
p1800
tp1801
Rp1802
sg17
g5
sg18
I00
sg19
I-694862
sg20
S'rick.buy@enron.com'
p1803
sg22
I769862
sg23
g7
(g11
S'^res\xc1j)@'
p1804
tp1805
Rp1806
sg27
g5
sg28
I2333
sg29
g5
sg30
I1053
sg31
I400572
sg32
g5
sg33
I900000
sg34
g90
sg38
I3444470
sg39
I156
sg40
g7
(g11
S'\xe2#\xd6*"\xcd)@'
p1807
tp1808
Rp1809
sg44
I71
sg45
g7
(g11
S'\xb7%^H>X-@'
p1810
tp1811
Rp1812
sg49
I901657
sg50
I330546
sg51
I2355702
sg52
I2542813
ssS'GRAMM WENDY L'
p1813
(dp1814
g3
g5
sg4
g5
sg6
g90
sg17
g5
sg18
I00
sg19
g5
sg20
g5
sg22
g5
sg23
g90
sg27
g5
sg28
g5
sg29
g5
sg30
g5
sg31
g5
sg32
I119292
sg33
g5
sg34
g90
sg38
g5
sg39
g5
sg40
g90
sg44
g5
sg45
g7
(g11
S"\xab\xb6\xff\xff\xf1`'@"
p1815
tp1816
Rp1817
sg49
g5
sg50
g5
sg51
I119292
sg52
g5
ssS'CAUSEY RICHARD A'
p1818
(dp1819
g3
I1892
sg4
g5
sg6
g7
(g11
S'\xc8\xed\x1d\xbb\x8a\xa1+@'
p1820
tp1821
Rp1822
sg17
I30674
sg18
I01
sg19
I-235000
sg20
S'richard.causey@enron.com'
p1823
sg22
I350000
sg23
g7
(g11
S'[m\t"|\xdf)@'
p1824
tp1825
Rp1826
sg27
g5
sg28
I1585
sg29
g5
sg30
I49
sg31
I307895
sg32
g5
sg33
I1000000
sg34
g7
(g11
S'u\xac\xf5\xce\x91\xe4e@'
p1827
tp1828
Rp1829
sg38
I2502063
sg39
I58
sg40
g7
(g11
S'%-R\xachF)@'
p1830
tp1831
Rp1832
sg44
I12
sg45
g7
(g11
S'\xfa\x00\xb3\xa8\xae\xe1,@'
p1833
tp1834
Rp1835
sg49
I2502063
sg50
I415189
sg51
I1868758
sg52
g5
ssS'TAYLOR MITCHELL S'
p1836
(dp1837
g3
I533
sg4
I227449
sg6
g7
(g11
S'\x10z\xd4\xe1\xff\x9b*@'
p1838
tp1839
Rp1840
sg17
g5
sg18
I00
sg19
g5
sg20
S'mitchell.taylor@enron.com'
p1841
sg22
g5
sg23
g7
(g11
S'pa\xb1p\x02\xfa(@'
p1842
tp1843
Rp1844
sg27
g5
sg28
I300
sg29
g5
sg30
I29
sg31
g5
sg32
g5
sg33
I600000
sg34
g90
sg38
I3745048
sg39
I0
sg40
g90
sg44
I0
sg45
g7
(g11
S'\x0f[!(\xea\xce+@'
p1845
tp1846
Rp1847
sg49
I563798
sg50
I265214
sg51
I1092663
sg52
I3181250
ssS'DONAHUE JR JEFFREY M'
p1848
(dp1849
g3
I865
sg4
g5
sg6
g7
(g11
S'\x92\xfeb\xe4J/+@'
p1850
tp1851
Rp1852
sg17
I96268
sg18
I00
sg19
I-300000
sg20
S'jeff.donahue@enron.com'
p1853
sg22
g5
sg23
g7
(g11
S'\xfb\x80\xad\xd98\x13)@'
p1854
tp1855
Rp1856
sg27
g5
sg28
I772
sg29
g5
sg30
I22
sg31
I891
sg32
g5
sg33
I800000
sg34
g7
(g11
S'\xa0\xfc\xf8\xff[ds@'
p1857
tp1858
Rp1859
sg38
I1080988
sg39
I188
sg40
g7
(g11
S'\xb2\xa8\xc7b\x82,\x1b@'
p1860
tp1861
Rp1862
sg44
I11
sg45
g7
(g11
S'C\xe4\xedw\x9e]+@'
p1863
tp1864
Rp1865
sg49
I315068
sg50
I278601
sg51
I875760
sg52
I765920
ssS'GLISAN JR BEN F'
p1866
(dp1867
g3
I873
sg4
g5
sg6
g7
(g11
S'\x10z\xd4\xe1\xff\x9b*@'
p1868
tp1869
Rp1870
sg17
I125978
sg18
I01
sg19
g5
sg20
S'ben.glisan@enron.com'
p1871
sg22
I71023
sg23
g7
(g11
S'\xbc@&\xc2\x83\x0c)@'
p1872
tp1873
Rp1874
sg27
g5
sg28
I874
sg29
g5
sg30
I16
sg31
I200308
sg32
g5
sg33
I600000
sg34
g7
(g11
S'\xf8\xc5\xe3\x99\xf6.v@'
p1875
tp1876
Rp1877
sg38
I778546
sg39
I52
sg40
g7
(g11
S';\x9a)\xb4Lj(@'
p1878
tp1879
Rp1880
sg44
I6
sg45
g7
(g11
S'\xac\xab\x94\xbd\xd6\x1c,@'
p1881
tp1882
Rp1883
sg49
I393818
sg50
I274975
sg51
I1272284
sg52
I384728
ss.