(lp0
S'poi'
p1
aS'salary'
p2
aS'bonus'
p3
aS'to_messages'
p4
aS'deferral_payments'
p5
aS'total_payments'
p6
aS'exercised_stock_options'
p7
aS'restricted_stock'
p8
aS'shared_receipt_with_poi'
p9
aS'restricted_stock_deferred'
p10
aS'total_stock_value'
p11
aS'expenses'
p12
aS'loan_advances'
p13
aS'from_messages'
p14
aS'other'
p15
aS'from_this_person_to_poi'
p16
aS'director_fees'
p17
aS'deferred_income'
p18
aS'long_term_incentive'
p19
aS'email_address'
p20
aS'from_poi_to_this_person'
p21
aS'bonus_log'
p22
aS'salary_log'
p23
aS'other_log'
p24
aS'expenses_sqrt'
p25
aS'total_payments_log'
p26
a.